(dp1
S'3300007188'
p2
I51
sS'3300007189'
p3
I3
sS'3300007181'
p4
I4
sS'3300007183'
p5
I5
sS'3300007184'
p6
I63
sS'3300007185'
p7
I5
sS'3300007186'
p8
I63
sS'3300007187'
p9
I1
sS'3300000202'
p10
I32
sS'3300000203'
p11
I21
sS'3300000972'
p12
I148
sS'3300000201'
p13
I35
sS'3300000206'
p14
I73
sS'3300000207'
p15
I32
sS'3300000204'
p16
I14
sS'3300000205'
p17
I102
sS'3300000754'
p18
I1
sS'3300000979'
p19
I305
sS'3300000208'
p20
I104
sS'3300000209'
p21
I21
sS'3300000750'
p22
I36
sS'3300004232'
p23
I36
sS'3300004231'
p24
I68
sS'3300004230'
p25
I25
sS'3300003401'
p26
I66
sS'3300003400'
p27
I6
sS'3300003403'
p28
I85
sS'3300003402'
p29
I81
sS'3300003405'
p30
I4
sS'3300003404'
p31
I132
sS'3300003407'
p32
I78
sS'3300003406'
p33
I110
sS'3300003409'
p34
I142
sS'3300003408'
p35
I105
sS'3300007766'
p36
I13
sS'3300007767'
p37
I32
sS'3300007760'
p38
I74
sS'3300007761'
p39
I1
sS'3300007763'
p40
I18
sS'3300006587'
p41
I60
sS'3300006586'
p42
I55
sS'3300006585'
p43
I57
sS'3300006584'
p44
I47
sS'3300006583'
p45
I48
sS'3300006581'
p46
I267
sS'3300006580'
p47
I243
sS'3300006589'
p48
I59
sS'3300006588'
p49
I55
sS'7000000436'
p50
I59
sS'7000000437'
p51
I37
sS'3300006428'
p52
I40
sS'3300006429'
p53
I2
sS'3300004396'
p54
I69
sS'2166559017'
p55
I76
sS'2166559013'
p56
I6
sS'2166559011'
p57
I11
sS'7000000438'
p58
I27
sS'2166559018'
p59
I129
sS'7000000439'
p60
I7
sS'3300004397'
p61
I116
sS'3300006420'
p62
I181
sS'3300002960'
p63
I4
sS'3300005809'
p64
I4
sS'3300002741'
p65
I27
sS'3300005801'
p66
I187
sS'3300005800'
p67
I311
sS'3300005806'
p68
I1398
sS'3300005805'
p69
I309
sS'3300005804'
p70
I244
sS'3300006427'
p71
I8
sS'3300002468'
p72
I70
sS'3300002469'
p73
I494
sS'3300002460'
p74
I228
sS'3300002461'
p75
I789
sS'3300002462'
p76
I703
sS'3300002465'
p77
I631
sS'3300002466'
p78
I258
sS'3300002467'
p79
I1
sS'2199352023'
p80
I14
sS'2199352027'
p81
I116
sS'2199352026'
p82
I20
sS'2199352025'
p83
I119
sS'2199352024'
p84
I109
sS'2199352029'
p85
I1
sS'2199352028'
p86
I6
sS'3300000970'
p87
I207
sS'3300000971'
p88
I9
sS'3300000200'
p89
I17
sS'3300000973'
p90
I179
sS'3300000974'
p91
I11
sS'3300000975'
p92
I13
sS'3300000976'
p93
I362
sS'3300000977'
p94
I335
sS'3300004237'
p95
I86
sS'3300004236'
p96
I25
sS'3300000756'
p97
I132
sS'3300004986'
p98
I56
sS'3300006869'
p99
I230
sS'3300004233'
p100
I42
sS'3300004980'
p101
I65
sS'3300004983'
p102
I67
sS'3300004982'
p103
I52
sS'3300007980'
p104
I137
sS'3300007981'
p105
I150
sS'3300007982'
p106
I555
sS'3300005118'
p107
I3
sS'3300007983'
p108
I518
sS'3300005111'
p109
I9
sS'3300005110'
p110
I14
sS'3300005113'
p111
I4
sS'3300005112'
p112
I8
sS'3300005115'
p113
I12
sS'3300005114'
p114
I2
sS'3300005117'
p115
I19
sS'3300005116'
p116
I12
sS'3300002166'
p117
I347
sS'3300007986'
p118
I423
sS'3300007987'
p119
I272
sS'3300007764'
p120
I274
sS'3300007765'
p121
I51
sS'3300001964'
p122
I84
sS'3300001965'
p123
I36
sS'3300001966'
p124
I134
sS'3300001967'
p125
I155
sS'3300001960'
p126
I22
sS'3300001961'
p127
I24
sS'3300001962'
p128
I28
sS'3300001963'
p129
I20
sS'3300001968'
p130
I116
sS'3300001969'
p131
I138
sS'7000000108'
p132
I87
sS'7000000109'
p133
I93
sS'3300000568'
p134
I582
sS'3300000563'
p135
I626
sS'3300000561'
p136
I31
sS'3300000567'
p137
I423
sS'3300000564'
p138
I8
sS'3300002546'
p139
I68
sS'3300000699'
p140
I5
sS'3300000698'
p141
I2
sS'3300000695'
p142
I1
sS'3300000697'
p143
I2
sS'3300000691'
p144
I1
sS'3300000690'
p145
I1
sS'3300000693'
p146
I1
sS'3300000692'
p147
I1
sS'3300007519'
p148
I469
sS'3300007513'
p149
I164
sS'3300007512'
p150
I171
sS'3300007511'
p151
I274
sS'3300007510'
p152
I559
sS'3300007517'
p153
I922
sS'3300007516'
p154
I232
sS'3300007515'
p155
I397
sS'3300007514'
p156
I602
sS'3300001619'
p157
I2
sS'3300001614'
p158
I5
sS'3300008871'
p159
I2
sS'2124908039'
p160
I68
sS'2124908038'
p161
I270
sS'2124908031'
p162
I3
sS'2124908030'
p163
I16
sS'2124908032'
p164
I232
sS'2124908035'
p165
I229
sS'2124908037'
p166
I35
sS'2124908036'
p167
I9
sS'2022920021'
p168
I15
sS'2022920020'
p169
I23
sS'3300002128'
p170
I46
sS'3300006178'
p171
I1084
sS'3300006179'
p172
I15
sS'3300002125'
p173
I239
sS'3300002124'
p174
I340
sS'3300002127'
p175
I196
sS'3300002126'
p176
I24
sS'3300002121'
p177
I202
sS'3300006173'
p178
I1370
sS'3300002123'
p179
I344
sS'3300002122'
p180
I230
sS'2119805005'
p181
I8
sS'2119805006'
p182
I11
sS'2119805007'
p183
I16
sS'3300009119'
p184
I60
sS'3300009118'
p185
I38
sS'3300005475'
p186
I2
sS'3300009115'
p187
I12
sS'3300009114'
p188
I9
sS'3300009117'
p189
I86
sS'3300005479'
p190
I12
sS'3300009111'
p191
I3109
sS'2119805009'
p192
I66
sS'3300009113'
p193
I15
sS'3300009112'
p194
I443
sS'3300003618'
p195
I109
sS'3300003619'
p196
I107
sS'3300003614'
p197
I148
sS'3300003615'
p198
I21
sS'3300003616'
p199
I95
sS'3300003617'
p200
I194
sS'3300003610'
p201
I1
sS'3300003611'
p202
I1
sS'3300003612'
p203
I5
sS'3300008793'
p204
I1
sS'3300002873'
p205
I4
sS'3300002696'
p206
I6
sS'3300002695'
p207
I33
sS'3300002870'
p208
I1
sS'3300002693'
p209
I7
sS'3300002876'
p210
I2
sS'3300002691'
p211
I4
sS'3300002690'
p212
I5
sS'3300002879'
p213
I21
sS'3300002878'
p214
I3
sS'3300005616'
p215
I1837
sS'3300005617'
p216
I1874
sS'3300005614'
p217
I1970
sS'3300005615'
p218
I1154
sS'3300005612'
p219
I806
sS'3300005613'
p220
I407
sS'3300005610'
p221
I912
sS'3300005611'
p222
I30
sS'3300005618'
p223
I1657
sS'3300005619'
p224
I3
sS'3300007558'
p225
I152
sS'3300008642'
p226
I3
sS'3300008643'
p227
I56
sS'3300008640'
p228
I52
sS'3300008641'
p229
I2
sS'3300008644'
p230
I4
sS'3300008645'
p231
I67
sS'3300008649'
p232
I1
sS'3300006825'
p233
I74
sS'3300008466'
p234
I6
sS'3300005523'
p235
I371
sS'3300008464'
p236
I119
sS'3300008465'
p237
I78
sS'3300008463'
p238
I65
sS'3300008460'
p239
I2
sS'3300008461'
p240
I14
sS'3300008468'
p241
I159
sS'3300008469'
p242
I444
sS'7000000378'
p243
I2
sS'7000000374'
p244
I80
sS'7000000377'
p245
I61
sS'7000000376'
p246
I6
sS'7000000371'
p247
I121
sS'7000000370'
p248
I43
sS'7000000373'
p249
I47
sS'7000000372'
p250
I70
sS'2017108002'
p251
I11
sS'3300001577'
p252
I17
sS'3300001576'
p253
I12
sS'3300001575'
p254
I31
sS'3300001574'
p255
I7
sS'3300001573'
p256
I10
sS'3300001572'
p257
I13
sS'3300001571'
p258
I2
sS'3300001570'
p259
I14
sS'3300001579'
p260
I13
sS'3300001578'
p261
I1
sS'7000000599'
p262
I38
sS'7000000598'
p263
I51
sS'3300006102'
p264
I963
sS'7000000591'
p265
I2
sS'7000000590'
p266
I4
sS'7000000593'
p267
I42
sS'7000000592'
p268
I39
sS'7000000595'
p269
I55
sS'3300006101'
p270
I68
sS'7000000597'
p271
I5
sS'7000000596'
p272
I50
sS'3300006100'
p273
I34
sS'3300006107'
p274
I75
sS'3300006106'
p275
I71
sS'3300004439'
p276
I85
sS'3300004438'
p277
I88
sS'3300004435'
p278
I95
sS'3300004434'
p279
I86
sS'3300004437'
p280
I87
sS'3300004436'
p281
I69
sS'3300004431'
p282
I73
sS'3300004430'
p283
I69
sS'3300004433'
p284
I91
sS'3300004432'
p285
I79
sS'3300007162'
p286
I127
sS'3300007163'
p287
I1
sS'3300007160'
p288
I155
sS'3300007161'
p289
I16
sS'3300007166'
p290
I15
sS'3300007167'
p291
I52
sS'3300007164'
p292
I7
sS'3300007165'
p293
I72
sS'3300007168'
p294
I13
sS'3300007169'
p295
I215
sS'3300009108'
p296
I215
sS'3300009109'
p297
I402
sS'3300008571'
p298
I65
sS'3300000224'
p299
I65
sS'3300000225'
p300
I133
sS'3300000734'
p301
I16
sS'3300000227'
p302
I177
sS'3300000732'
p303
I6
sS'3300000221'
p304
I13
sS'3300000730'
p305
I63
sS'3300000223'
p306
I25
sS'3300000228'
p307
I201
sS'3300000229'
p308
I203
sS'3300007706'
p309
I243
sS'3300007705'
p310
I23
sS'3300009102'
p311
I1738
sS'3300000098'
p312
I8
sS'3300007708'
p313
I268
sS'3300000097'
p314
I19
sS'3300009100'
p315
I2015
sS'3300000096'
p316
I24
sS'3300009101'
p317
I1291
sS'3300000095'
p318
I62
sS'3300000094'
p319
I67
sS'3300000091'
p320
I310
sS'3300004771'
p321
I153
sS'3300003429'
p322
I152
sS'3300003428'
p323
I70
sS'3300003420'
p324
I3
sS'3300003427'
p325
I124
sS'3300003426'
p326
I85
sS'3300003425'
p327
I1
sS'3300008973'
p328
I6
sS'3300005864'
p329
I12
sS'3300005861'
p330
I137
sS'3300005860'
p331
I266
sS'3300005863'
p332
I313
sS'3300005547'
p333
I1012
sS'3300002482'
p334
I6
sS'3300002483'
p335
I1
sS'3300002481'
p336
I233
sS'3300002484'
p337
I6
sS'3300002485'
p338
I196
sS'3300002488'
p339
I17
sS'7000000513'
p340
I91
sS'7000000512'
p341
I115
sS'3300000827'
p342
I35
sS'7000000047'
p343
I3
sS'7000000514'
p344
I88
sS'3300007550'
p345
I193
sS'7000000045'
p346
I85
sS'7000000044'
p347
I157
sS'7000000519'
p348
I69
sS'7000000518'
p349
I108
sS'3300002869'
p350
I6
sS'3300006369'
p351
I15
sS'3300006368'
p352
I6
sS'3300005289'
p353
I631
sS'3300002864'
p354
I1
sS'3300005281'
p355
I156
sS'3300005280'
p356
I111
sS'3300005283'
p357
I3
sS'3300005282'
p358
I406
sS'3300005285'
p359
I3
sS'3300005284'
p360
I228
sS'3300005287'
p361
I95
sS'3300005286'
p362
I453
sS'7000000296'
p363
I41
sS'7000000297'
p364
I70
sS'7000000294'
p365
I1
sS'7000000295'
p366
I95
sS'7000000292'
p367
I69
sS'7000000293'
p368
I59
sS'7000000290'
p369
I35
sS'7000000743'
p370
I12
sS'7000000298'
p371
I86
sS'3300005133'
p372
I5
sS'3300005132'
p373
I27
sS'3300005131'
p374
I20
sS'3300005130'
p375
I21
sS'3300005137'
p376
I35
sS'3300005136'
p377
I22
sS'3300005135'
p378
I12
sS'3300005134'
p379
I32
sS'3300005139'
p380
I51
sS'3300005138'
p381
I29
sS'3300002606'
p382
I3
sS'3300000671'
p383
I1
sS'3300000894'
p384
I60
sS'3300000677'
p385
I1
sS'3300002607'
p386
I4
sS'3300000892'
p387
I42
sS'3300000675'
p388
I3
sS'3300000674'
p389
I1
sS'3300000505'
p390
I14
sS'3300000504'
p391
I86
sS'3300000507'
p392
I37
sS'3300000506'
p393
I269
sS'3300000501'
p394
I23
sS'3300000500'
p395
I57
sS'3300000503'
p396
I79
sS'3300000502'
p397
I49
sS'3300008079'
p398
I90
sS'3300008078'
p399
I134
sS'3300008071'
p400
I137
sS'3300008070'
p401
I152
sS'3300008073'
p402
I155
sS'3300008072'
p403
I70
sS'3300008075'
p404
I81
sS'3300008074'
p405
I59
sS'3300008077'
p406
I172
sS'7000000086'
p407
I55
sS'7000000191'
p408
I79
sS'7000000085'
p409
I51
sS'7000000084'
p410
I49
sS'7000000128'
p411
I121
sS'7000000129'
p412
I9
sS'7000000120'
p413
I4
sS'3300001904'
p414
I55
sS'7000000123'
p415
I8
sS'3300001903'
p416
I1
sS'7000000126'
p417
I58
sS'7000000127'
p418
I87
sS'3300004378'
p419
I56
sS'3300004379'
p420
I77
sS'3300004372'
p421
I96
sS'3300004373'
p422
I64
sS'3300004370'
p423
I65
sS'3300004371'
p424
I52
sS'3300004376'
p425
I106
sS'3300004377'
p426
I68
sS'3300004374'
p427
I60
sS'3300004375'
p428
I79
sS'3300003852'
p429
I1005
sS'3300003853'
p430
I7
sS'3300003850'
p431
I33
sS'3300003851'
p432
I3
sS'3300003856'
p433
I123
sS'3300003857'
p434
I180
sS'3300003854'
p435
I10
sS'3300003855'
p436
I4
sS'3300007575'
p437
I3
sS'3300007574'
p438
I2
sS'3300003858'
p439
I542
sS'3300003859'
p440
I491
sS'3300007570'
p441
I11
sS'3300007573'
p442
I3
sS'3300001639'
p443
I1
sS'3300001634'
p444
I12
sS'3300001635'
p445
I2
sS'3300001636'
p446
I1
sS'3300001632'
p447
I10
sS'3300001633'
p448
I3
sS'7000000081'
p449
I84
sS'2124908013'
p450
I63
sS'2124908012'
p451
I161
sS'2124908011'
p452
I41
sS'2124908010'
p453
I30
sS'2124908016'
p454
I55
sS'2124908015'
p455
I56
sS'2124908014'
p456
I73
sS'3300007390'
p457
I1
sS'3300007394'
p458
I3
sS'3300006150'
p459
I82
sS'3300006151'
p460
I23
sS'3300002105'
p461
I429
sS'3300006153'
p462
I43
sS'3300002103'
p463
I317
sS'3300006155'
p464
I15
sS'3300006624'
p465
I5
sS'3300006157'
p466
I1
sS'3300006628'
p467
I12
sS'3300006629'
p468
I1
sS'3300002108'
p469
I1
sS'3300005454'
p470
I654
sS'3300005455'
p471
I1599
sS'3300005456'
p472
I1682
sS'3300005457'
p473
I1258
sS'3300005450'
p474
I825
sS'3300005451'
p475
I693
sS'3300005452'
p476
I62
sS'3300005453'
p477
I181
sS'3300005458'
p478
I1612
sS'3300005459'
p479
I1315
sS'3300009139'
p480
I1827
sS'3300009138'
p481
I407
sS'3300003676'
p482
I4
sS'3300003674'
p483
I1
sS'3300003679'
p484
I4
sS'3300007577'
p485
I15
sS'2051223003'
p486
I15
sS'2051223002'
p487
I28
sS'2051223001'
p488
I34
sS'2051223000'
p489
I42
sS'2051223007'
p490
I33
sS'2051223006'
p491
I63
sS'2051223005'
p492
I25
sS'2051223004'
p493
I17
sS'2051223009'
p494
I23
sS'2051223008'
p495
I23
sS'3300008664'
p496
I73
sS'3300008665'
p497
I1
sS'3300008666'
p498
I2
sS'3300008660'
p499
I25
sS'3300008668'
p500
I5
sS'3300006846'
p501
I1334
sS'3300006847'
p502
I1590
sS'3300006844'
p503
I2131
sS'3300006845'
p504
I2314
sS'3300006842'
p505
I39
sS'3300006843'
p506
I39
sS'3300006840'
p507
I130
sS'3300006841'
p508
I86
sS'3300006848'
p509
I11
sS'3300006849'
p510
I8
sS'3300005638'
p511
I25
sS'3300005639'
p512
I21
sS'3300005630'
p513
I3
sS'3300005631'
p514
I4
sS'3300005632'
p515
I11
sS'3300005633'
p516
I6
sS'3300005634'
p517
I8
sS'3300005635'
p518
I3
sS'3300005636'
p519
I9
sS'3300005637'
p520
I13
sS'3300008448'
p521
I14
sS'3300008449'
p522
I7
sS'3300008918'
p523
I1
sS'3300008919'
p524
I10
sS'2029527007'
p525
I8
sS'2029527006'
p526
I26
sS'2029527005'
p527
I38
sS'2029527004'
p528
I18
sS'2029527003'
p529
I44
sS'2029527002'
p530
I10
sS'2029527001'
p531
I5
sS'2029527000'
p532
I23
sS'3300002875'
p533
I2
sS'7000000356'
p534
I4
sS'7000000355'
p535
I1
sS'7000000354'
p536
I45
sS'7000000353'
p537
I27
sS'7000000352'
p538
I118
sS'7000000351'
p539
I74
sS'7000000350'
p540
I11
sS'7000000359'
p541
I4
sS'7000000358'
p542
I47
sS'3300004141'
p543
I1
sS'3300004140'
p544
I2
sS'3300004143'
p545
I94
sS'3300004142'
p546
I81
sS'3300004145'
p547
I305
sS'3300004144'
p548
I6
sS'3300004147'
p549
I287
sS'3300004146'
p550
I240
sS'3300004149'
p551
I153
sS'3300004148'
p552
I252
sS'3300004419'
p553
I46
sS'3300004418'
p554
I57
sS'3300007144'
p555
I78
sS'3300007145'
p556
I56
sS'3300007146'
p557
I20
sS'3300007147'
p558
I12
sS'3300007140'
p559
I40
sS'3300007141'
p560
I38
sS'3300007142'
p561
I45
sS'3300007143'
p562
I55
sS'3300007148'
p563
I13
sS'3300007149'
p564
I21
sS'3300007498'
p565
I39
sS'3300007499'
p566
I61
sS'3300000718'
p567
I2
sS'3300000719'
p568
I3
sS'3300000248'
p569
I49
sS'3300000249'
p570
I3
sS'3300000710'
p571
I2
sS'3300000247'
p572
I39
sS'3300000713'
p573
I5
sS'3300000714'
p574
I7
sS'3300000243'
p575
I95
sS'3300000716'
p576
I7
sS'3300000241'
p577
I162
sS'3300006510'
p578
I3
sS'3300006517'
p579
I50
sS'3300000868'
p580
I11
sS'3300000869'
p581
I50
sS'3300000862'
p582
I2
sS'3300000863'
p583
I4
sS'3300000860'
p584
I6
sS'3300000861'
p585
I20
sS'3300000866'
p586
I156
sS'3300000867'
p587
I21
sS'3300000864'
p588
I8
sS'3300000865'
p589
I67
sS'3300007475'
p590
I4
sS'3300007476'
p591
I15
sS'3300007728'
p592
I84
sS'3300007729'
p593
I1
sS'3300003444'
p594
I7
sS'3300007722'
p595
I190
sS'3300007723'
p596
I638
sS'3300003441'
p597
I7
sS'3300003440'
p598
I12
sS'3300003442'
p599
I28
sS'3300006459'
p600
I43
sS'3300006458'
p601
I58
sS'3300005549'
p602
I1311
sS'3300006451'
p603
I1
sS'3300006450'
p604
I71
sS'3300006453'
p605
I1
sS'3300000335'
p606
I1
sS'3300006455'
p607
I1
sS'3300006454'
p608
I4
sS'3300006457'
p609
I57
sS'3300006456'
p610
I33
sS'3300004305'
p611
I7
sS'3300005847'
p612
I3
sS'3300005846'
p613
I3
sS'3300004656'
p614
I2
sS'3300005843'
p615
I1845
sS'3300005842'
p616
I1665
sS'3300005841'
p617
I1642
sS'3300005840'
p618
I848
sS'3300004303'
p619
I2
sS'3300005849'
p620
I2
sS'3300004302'
p621
I3
sS'3300004301'
p622
I5
sS'3300002100'
p623
I22
sS'3300007871'
p624
I251
sS'3300009098'
p625
I2377
sS'3300007301'
p626
I61
sS'3300009090'
p627
I1897
sS'3300007658'
p628
I167
sS'3300009092'
p629
I612
sS'3300009093'
p630
I2022
sS'3300009094'
p631
I2323
sS'3300009095'
p632
I4229
sS'3300007307'
p633
I3
sS'3300007876'
p634
I12
sS'3300007877'
p635
I5
sS'3300007878'
p636
I18
sS'3300007655'
p637
I120
sS'3300007657'
p638
I69
sS'7000000106'
p639
I2
sS'7000000107'
p640
I88
sS'3300002449'
p641
I319
sS'7000000104'
p642
I42
sS'3300005155'
p643
I16
sS'3300005154'
p644
I6
sS'3300005157'
p645
I16
sS'3300005156'
p646
I7
sS'3300005151'
p647
I10
sS'3300005150'
p648
I16
sS'3300005153'
p649
I4
sS'3300005152'
p650
I7
sS'7000000102'
p651
I33
sS'3300005159'
p652
I30
sS'3300005158'
p653
I24
sS'7000000103'
p654
I6
sS'7000000100'
p655
I72
sS'7000000101'
p656
I8
sS'3300004557'
p657
I4
sS'3300000527'
p658
I177
sS'3300000526'
p659
I8
sS'3300000525'
p660
I63
sS'3300000529'
p661
I2
sS'3300000528'
p662
I3
sS'3300008052'
p663
I237
sS'3300008051'
p664
I80
sS'3300008050'
p665
I40
sS'3300008057'
p666
I16
sS'3300008056'
p667
I12
sS'3300008055'
p668
I487
sS'3300008059'
p669
I28
sS'3300008058'
p670
I74
sS'7000000728'
p671
I1
sS'7000000729'
p672
I2
sS'7000000726'
p673
I38
sS'7000000727'
p674
I80
sS'7000000724'
p675
I4
sS'7000000725'
p676
I1
sS'7000000722'
p677
I31
sS'7000000723'
p678
I4
sS'7000000720'
p679
I130
sS'7000000721'
p680
I73
sS'3300007785'
p681
I4
sS'3300005096'
p682
I433
sS'3300007783'
p683
I39
sS'3300007780'
p684
I8
sS'3300005093'
p685
I2042
sS'3300001432'
p686
I4
sS'3300001921'
p687
I176
sS'3300001430'
p688
I3
sS'3300001431'
p689
I442
sS'3300001924'
p690
I1
sS'3300001928'
p691
I2
sS'3300001929'
p692
I1
sS'3300001380'
p693
I429
sS'3300001382'
p694
I37
sS'3300001383'
p695
I26
sS'3300004602'
p696
I29
sS'3300004603'
p697
I17
sS'3300004600'
p698
I12
sS'3300004601'
p699
I6
sS'3300004358'
p700
I54
sS'3300004359'
p701
I49
sS'3300000385'
p702
I92
sS'3300004605'
p703
I32
sS'3300004354'
p704
I54
sS'3300004355'
p705
I44
sS'3300004356'
p706
I54
sS'3300004357'
p707
I35
sS'3300004350'
p708
I65
sS'3300004351'
p709
I56
sS'3300004352'
p710
I48
sS'3300004353'
p711
I59
sS'3300003874'
p712
I29
sS'3300003875'
p713
I10
sS'3300003876'
p714
I59
sS'3300003877'
p715
I75
sS'3300007553'
p716
I83
sS'3300003871'
p717
I45
sS'3300003872'
p718
I77
sS'3300003873'
p719
I63
sS'3300003878'
p720
I159
sS'3300003879'
p721
I143
sS'3300007559'
p722
I120
sS'2100351003'
p723
I19
sS'3300001652'
p724
I2
sS'3300001653'
p725
I1
sS'3300001650'
p726
I1
sS'3300007801'
p727
I50
sS'3300007800'
p728
I48
sS'3300007803'
p729
I58
sS'3300007802'
p730
I66
sS'3300003382'
p731
I12
sS'3300003383'
p732
I5
sS'3300003380'
p733
I10
sS'3300007806'
p734
I15
sS'3300007808'
p735
I1
sS'3300003388'
p736
I206
sS'3300001274'
p737
I13
sS'3300006604'
p738
I155
sS'3300006605'
p739
I209
sS'3300006606'
p740
I229
sS'3300006600'
p741
I134
sS'3300006601'
p742
I137
sS'3300006602'
p743
I2
sS'3300006603'
p744
I77
sS'3300003659'
p745
I119
sS'3300003128'
p746
I9
sS'3300003129'
p747
I10
sS'3300003650'
p748
I5
sS'3300003123'
p749
I17
sS'3300003120'
p750
I11
sS'3300003653'
p751
I18
sS'3300003654'
p752
I33
sS'3300003655'
p753
I2
sS'3300003124'
p754
I19
sS'3300003125'
p755
I24
sS'3300002389'
p756
I2
sS'3300002388'
p757
I8
sS'3300002839'
p758
I213
sS'3300002838'
p759
I1
sS'3300002385'
p760
I5
sS'3300002384'
p761
I6
sS'3300002835'
p762
I1124
sS'3300002834'
p763
I288
sS'3300002381'
p764
I2
sS'3300002380'
p765
I11
sS'3300002383'
p766
I8
sS'3300002382'
p767
I3
sS'3300005438'
p768
I768
sS'3300005439'
p769
I1627
sS'3300005436'
p770
I2114
sS'3300005437'
p771
I1195
sS'3300005434'
p772
I1539
sS'3300005435'
p773
I2471
sS'3300005432'
p774
I494
sS'3300005433'
p775
I86
sS'3300005430'
p776
I303
sS'3300005431'
p777
I266
sS'3300008608'
p778
I3
sS'3300008609'
p779
I4
sS'3300008607'
p780
I50
sS'3300008604'
p781
I41
sS'3300008605'
p782
I10
sS'3300008600'
p783
I1
sS'3300002529'
p784
I318
sS'3300002528'
p785
I139
sS'3300006860'
p786
I32
sS'3300006861'
p787
I18
sS'3300002523'
p788
I100
sS'3300006863'
p789
I51
sS'3300006864'
p790
I471
sS'3300006865'
p791
I1119
sS'3300006866'
p792
I11
sS'3300002526'
p793
I93
sS'3300005380'
p794
I11
sS'3300005381'
p795
I62
sS'3300005382'
p796
I1
sS'3300005383'
p797
I4
sS'3300005384'
p798
I3
sS'3300005386'
p799
I1
sS'3300005387'
p800
I1
sS'3300005388'
p801
I2
sS'3300005389'
p802
I6
sS'3300008938'
p803
I29
sS'3300008939'
p804
I4
sS'3300008934'
p805
I11
sS'3300008935'
p806
I12
sS'3300008936'
p807
I17
sS'3300008937'
p808
I16
sS'3300008930'
p809
I26
sS'3300008931'
p810
I20
sS'3300008932'
p811
I28
sS'3300008933'
p812
I15
sS'7000000577'
p813
I21
sS'2162886011'
p814
I31
sS'2162886012'
p815
I79
sS'2162886013'
p816
I97
sS'2162886015'
p817
I44
sS'3300009039'
p818
I1024
sS'2032320008'
p819
I6
sS'2032320009'
p820
I13
sS'2032320001'
p821
I74
sS'2032320002'
p822
I58
sS'2032320003'
p823
I33
sS'2032320004'
p824
I57
sS'2032320005'
p825
I40
sS'2032320006'
p826
I19
sS'2032320007'
p827
I32
sS'3300009033'
p828
I409
sS'3300004169'
p829
I29
sS'3300004168'
p830
I51
sS'3300004163'
p831
I43
sS'3300004162'
p832
I24
sS'3300004161'
p833
I17
sS'3300004160'
p834
I16
sS'3300004167'
p835
I56
sS'3300004166'
p836
I25
sS'3300004165'
p837
I41
sS'3300004164'
p838
I30
sS'7000000187'
p839
I128
sS'3300000260'
p840
I46
sS'3300000261'
p841
I34
sS'3300000262'
p842
I75
sS'3300000263'
p843
I25
sS'3300000264'
p844
I47
sS'3300000265'
p845
I85
sS'3300000266'
p846
I41
sS'3300000268'
p847
I286
sS'3300004294'
p848
I3
sS'3300004291'
p849
I1
sS'3300004293'
p850
I5
sS'3300004292'
p851
I2
sS'3300007128'
p852
I16
sS'3300007129'
p853
I35
sS'3300007126'
p854
I92
sS'3300007127'
p855
I32
sS'3300007124'
p856
I69
sS'3300007125'
p857
I101
sS'3300007122'
p858
I57
sS'3300007123'
p859
I49
sS'3300007120'
p860
I49
sS'3300007121'
p861
I71
sS'7000000421'
p862
I42
sS'3300006299'
p863
I18
sS'3300006298'
p864
I53
sS'3300006297'
p865
I41
sS'3300006296'
p866
I31
sS'3300006295'
p867
I46
sS'3300006294'
p868
I27
sS'3300006292'
p869
I88
sS'3300006291'
p870
I21
sS'3300006290'
p871
I35
sS'3300004839'
p872
I26
sS'3300004838'
p873
I26
sS'7000000422'
p874
I61
sS'3300000848'
p875
I6
sS'3300000849'
p876
I10
sS'3300000844'
p877
I5
sS'3300000845'
p878
I12
sS'3300000846'
p879
I13
sS'3300000847'
p880
I28
sS'3300004835'
p881
I30
sS'3300004834'
p882
I23
sS'3300004837'
p883
I21
sS'3300000843'
p884
I1
sS'7000000427'
p885
I1
sS'7000000426'
p886
I30
sS'3300003467'
p887
I2
sS'3300003465'
p888
I99
sS'3300003461'
p889
I110
sS'3300002774'
p890
I42
sS'3300002775'
p891
I2
sS'3300006473'
p892
I44
sS'3300002735'
p893
I77
sS'3300006471'
p894
I4
sS'3300002737'
p895
I55
sS'3300002730'
p896
I83
sS'3300006476'
p897
I74
sS'3300006475'
p898
I8
sS'3300006474'
p899
I3
sS'3300006479'
p900
I210
sS'3300006478'
p901
I98
sS'3300002738'
p902
I29
sS'3300002739'
p903
I48
sS'3300006437'
p904
I3
sS'3300006436'
p905
I4
sS'3300006435'
p906
I47
sS'3300006434'
p907
I35
sS'3300002950'
p908
I35
sS'3300006432'
p909
I24
sS'3300002952'
p910
I48
sS'3300002953'
p911
I93
sS'3300009072'
p912
I48
sS'3300009073'
p913
I199
sS'3300009070'
p914
I152
sS'3300009071'
p915
I706
sS'3300009076'
p916
I263
sS'3300009077'
p917
I373
sS'3300009074'
p918
I222
sS'3300009075'
p919
I1263
sS'3300009078'
p920
I2029
sS'3300009079'
p921
I759
sS'3300000211'
p922
I49
sS'3300000210'
p923
I147
sS'3300000965'
p924
I3
sS'3300002222'
p925
I59
sS'3300002223'
p926
I342
sS'3300002220'
p927
I1236
sS'3300002221'
p928
I142
sS'3300000961'
p929
I33
sS'3300002227'
p930
I38
sS'3300002224'
p931
I11
sS'3300002225'
p932
I409
sS'3300007997'
p933
I186
sS'3300005179'
p934
I849
sS'3300005178'
p935
I777
sS'3300005177'
p936
I882
sS'3300005176'
p937
I938
sS'3300005175'
p938
I640
sS'3300005174'
p939
I819
sS'3300005173'
p940
I7
sS'3300005172'
p941
I673
sS'3300005171'
p942
I636
sS'3300007994'
p943
I103
sS'3300007777'
p944
I402
sS'3300007776'
p945
I317
sS'3300007775'
p946
I565
sS'3300007990'
p947
I9
sS'3300004598'
p948
I16
sS'2236661024'
p949
I14
sS'3300008034'
p950
I3
sS'3300008037'
p951
I2
sS'3300008036'
p952
I4
sS'3300008031'
p953
I7
sS'3300008030'
p954
I8
sS'3300008033'
p955
I5
sS'3300008032'
p956
I2
sS'3300008039'
p957
I4
sS'3300008038'
p958
I3
sS'7000000252'
p959
I116
sS'7000000253'
p960
I32
sS'7000000250'
p961
I44
sS'7000000251'
p962
I1
sS'7000000256'
p963
I6
sS'7000000705'
p964
I1
sS'7000000254'
p965
I6
sS'7000000255'
p966
I30
sS'7000000708'
p967
I75
sS'7000000709'
p968
I77
sS'7000000258'
p969
I163
sS'7000000259'
p970
I3
sS'3300001414'
p971
I6
sS'3300001416'
p972
I3
sS'3300001417'
p973
I21
sS'3300001410'
p974
I74
sS'3300001411'
p975
I1
sS'3300001412'
p976
I52
sS'3300001413'
p977
I12
sS'3300001418'
p978
I52
sS'3300001419'
p979
I175
sS'3300004624'
p980
I57
sS'3300004337'
p981
I21
sS'3300004626'
p982
I4
sS'3300004335'
p983
I38
sS'3300004332'
p984
I23
sS'3300004621'
p985
I53
sS'3300004330'
p986
I39
sS'3300004623'
p987
I59
sS'3300004628'
p988
I473
sS'3300004629'
p989
I23
sS'3300004339'
p990
I51
sS'3300003818'
p991
I1
sS'3300003819'
p992
I14
sS'3300003817'
p993
I25
sS'3300003814'
p994
I20
sS'3300003815'
p995
I7
sS'3300003812'
p996
I9
sS'3300003813'
p997
I18
sS'3300003810'
p998
I8
sS'3300003811'
p999
I7
sS'3300001678'
p1000
I94
sS'3300001679'
p1001
I75
sS'3300001676'
p1002
I53
sS'3300001677'
p1003
I29
sS'3300007637'
p1004
I264
sS'2035265002'
p1005
I4
sS'2035265001'
p1006
I4
sS'2035265000'
p1007
I31
sS'3300007634'
p1008
I242
sS'3300007829'
p1009
I3
sS'3300007828'
p1010
I26
sS'3300007822'
p1011
I21
sS'3300007821'
p1012
I41
sS'3300007820'
p1013
I45
sS'3300007826'
p1014
I1
sS'3300007825'
p1015
I22
sS'3300006668'
p1016
I60
sS'3300006669'
p1017
I66
sS'3300006666'
p1018
I38
sS'3300006667'
p1019
I53
sS'3300006664'
p1020
I36
sS'3300006665'
p1021
I47
sS'3300006662'
p1022
I42
sS'3300006663'
p1023
I40
sS'3300006660'
p1024
I31
sS'3300006661'
p1025
I32
sS'3300000109'
p1026
I53
sS'3300000108'
p1027
I209
sS'3300000101'
p1028
I310
sS'3300000103'
p1029
I64
sS'3300000102'
p1030
I6
sS'3300000105'
p1031
I11
sS'3300000107'
p1032
I1
sS'3300000106'
p1033
I35
sS'3300003108'
p1034
I10
sS'3300003109'
p1035
I8
sS'3300003104'
p1036
I6
sS'3300003106'
p1037
I4
sS'3300003107'
p1038
I14
sS'3300003100'
p1039
I1
sS'3300003102'
p1040
I1
sS'3300003103'
p1041
I2
sS'3300007630'
p1042
I264
sS'3300007631'
p1043
I85
sS'3300006088'
p1044
I2
sS'3300006082'
p1045
I98
sS'3300006083'
p1046
I99
sS'3300006080'
p1047
I163
sS'3300006081'
p1048
I106
sS'3300006086'
p1049
I927
sS'3300006087'
p1050
I1
sS'3300006084'
p1051
I21
sS'3300005410'
p1052
I8
sS'3300005411'
p1053
I12
sS'3300005412'
p1054
I13
sS'3300005413'
p1055
I11
sS'3300005414'
p1056
I9
sS'3300005416'
p1057
I19
sS'3300005417'
p1058
I28
sS'3300005418'
p1059
I38
sS'3300005419'
p1060
I29
sS'3300008620'
p1061
I46
sS'3300008621'
p1062
I62
sS'3300008622'
p1063
I51
sS'3300008623'
p1064
I4
sS'3300007881'
p1065
I3
sS'3300008626'
p1066
I38
sS'3300008627'
p1067
I262
sS'3300008628'
p1068
I32
sS'3300008629'
p1069
I384
sS'3300006882'
p1070
I40
sS'3300006883'
p1071
I45
sS'3300006880'
p1072
I1292
sS'3300006881'
p1073
I1290
sS'3300006886'
p1074
I102
sS'3300006887'
p1075
I82
sS'3300002505'
p1076
I443
sS'3300002504'
p1077
I333
sS'3300006888'
p1078
I86
sS'3300002508'
p1079
I41
sS'3300008484'
p1080
I7
sS'3300008485'
p1081
I58
sS'3300008486'
p1082
I95
sS'3300008487'
p1083
I149
sS'3300008480'
p1084
I166
sS'3300008481'
p1085
I109
sS'3300008482'
p1086
I44
sS'3300008483'
p1087
I63
sS'3300008488'
p1088
I105
sS'3300008489'
p1089
I48
sS'3300008958'
p1090
I3
sS'3300008959'
p1091
I52
sS'2149837006'
p1092
I51
sS'3300001086'
p1093
I17
sS'3300001084'
p1094
I23
sS'2149837002'
p1095
I25
sS'3300001082'
p1096
I9
sS'3300001081'
p1097
I14
sS'3300001089'
p1098
I22
sS'2149837009'
p1099
I113
sS'3300007473'
p1100
I5
sS'3300007095'
p1101
I29
sS'7000000069'
p1102
I118
sS'7000000061'
p1103
I49
sS'7000000060'
p1104
I8
sS'7000000063'
p1105
I47
sS'7000000062'
p1106
I58
sS'7000000065'
p1107
I11
sS'7000000064'
p1108
I2
sS'3300001881'
p1109
I202
sS'3300006176'
p1110
I1796
sS'3300006177'
p1111
I778
sS'3300006174'
p1112
I889
sS'3300006175'
p1113
I1705
sS'3300004109'
p1114
I223
sS'3300004108'
p1115
I139
sS'3300004105'
p1116
I183
sS'3300004104'
p1117
I6
sS'3300004107'
p1118
I167
sS'3300004106'
p1119
I155
sS'3300004101'
p1120
I2
sS'3300004100'
p1121
I3
sS'3300004103'
p1122
I10
sS'3300002120'
p1123
I357
sS'3300006170'
p1124
I2
sS'3300006171'
p1125
I23
sS'3300005473'
p1126
I4
sS'3300005470'
p1127
I42
sS'3300005471'
p1128
I1833
sS'2012990007'
p1129
I4
sS'2012990006'
p1130
I5
sS'3300009116'
p1131
I24
sS'3300009110'
p1132
I150
sS'3300007533'
p1133
I355
sS'3300004239'
p1134
I382
sS'3300007479'
p1135
I4
sS'2067725009'
p1136
I30
sS'2067725004'
p1137
I66
sS'2067725001'
p1138
I40
sS'2067725000'
p1139
I35
sS'2067725003'
p1140
I30
sS'2067725002'
p1141
I29
sS'3300007100'
p1142
I70
sS'3300007101'
p1143
I8
sS'3300007102'
p1144
I402
sS'3300007103'
p1145
I28
sS'3300007104'
p1146
I58
sS'3300007105'
p1147
I48
sS'3300007106'
p1148
I27
sS'3300007107'
p1149
I64
sS'3300007108'
p1150
I20
sS'3300004238'
p1151
I284
sS'3300007458'
p1152
I1
sS'3300006272'
p1153
I1
sS'3300007230'
p1154
I21
sS'3300004813'
p1155
I2
sS'3300004812'
p1156
I7
sS'3300000824'
p1157
I2
sS'3300004810'
p1158
I71
sS'3300004817'
p1159
I1
sS'3300004816'
p1160
I13
sS'3300004815'
p1161
I5
sS'3300004814'
p1162
I4
sS'3300007236'
p1163
I156
sS'3300004818'
p1164
I1
sS'3300000828'
p1165
I41
sS'3300000829'
p1166
I34
sS'3300007495'
p1167
I10
sS'3300007534'
p1168
I41
sS'3300007584'
p1169
I15
sS'3300007585'
p1170
I202
sS'3300006415'
p1171
I34
sS'3300006414'
p1172
I289
sS'3300006417'
p1173
I1084
sS'3300006411'
p1174
I102
sS'3300006410'
p1175
I5
sS'3300006413'
p1176
I26
sS'3300006412'
p1177
I77
sS'3300007537'
p1178
I813
sS'3300006419'
p1179
I15
sS'3300006418'
p1180
I18
sS'3300004235'
p1181
I25
sS'3300004578'
p1182
I11
sS'3300007493'
p1183
I12
sS'3300007536'
p1184
I510
sS'3300005879'
p1185
I46
sS'3300004234'
p1186
I47
sS'3300004579'
p1187
I10
sS'7000000036'
p1188
I82
sS'7000000525'
p1189
I29
sS'7000000526'
p1190
I60
sS'3300009054'
p1191
I150
sS'3300009055'
p1192
I114
sS'3300009056'
p1193
I219
sS'3300009057'
p1194
I101
sS'3300009050'
p1195
I186
sS'3300009051'
p1196
I213
sS'3300009052'
p1197
I288
sS'3300009053'
p1198
I1290
sS'7000000520'
p1199
I4
sS'3300009058'
p1200
I240
sS'3300009059'
p1201
I215
sS'7000000521'
p1202
I93
sS'3300006392'
p1203
I23
sS'3300006393'
p1204
I1
sS'7000000031'
p1205
I32
sS'3300006390'
p1206
I2
sS'3300002978'
p1207
I10
sS'3300002694'
p1208
I15
sS'3300002972'
p1209
I1
sS'3300002877'
p1210
I4
sS'3300002754'
p1211
I25
sS'3300002971'
p1212
I1
sS'3300002976'
p1213
I11
sS'3300002753'
p1214
I15
sS'3300002975'
p1215
I6
sS'3300005999'
p1216
I3
sS'3300005998'
p1217
I11
sS'3300006394'
p1218
I11
sS'3300005991'
p1219
I42
sS'3300005990'
p1220
I27
sS'3300005993'
p1221
I253
sS'3300006395'
p1222
I202
sS'3300005995'
p1223
I460
sS'3300005994'
p1224
I442
sS'3300005997'
p1225
I152
sS'3300005996'
p1226
I16
sS'3300006688'
p1227
I9
sS'7000000038'
p1228
I173
sS'3300006398'
p1229
I214
sS'3300006399'
p1230
I81
sS'3300005190'
p1231
I1
sS'3300007593'
p1232
I274
sS'3300005198'
p1233
I1
sS'2010549000'
p1234
I28
sS'3300007985'
p1235
I262
sS'3300001322'
p1236
I15
sS'3300007591'
p1237
I2
sS'3300001320'
p1238
I5
sS'3300008019'
p1239
I360
sS'3300008018'
p1240
I150
sS'3300008017'
p1241
I165
sS'3300001326'
p1242
I8
sS'3300008015'
p1243
I2
sS'3300008014'
p1244
I6
sS'3300008013'
p1245
I6
sS'3300008012'
p1246
I445
sS'3300008011'
p1247
I207
sS'3300008010'
p1248
I217
sS'7000000274'
p1249
I111
sS'7000000275'
p1250
I11
sS'7000000276'
p1251
I60
sS'7000000277'
p1252
I8
sS'7000000270'
p1253
I64
sS'7000000271'
p1254
I57
sS'7000000272'
p1255
I97
sS'7000000273'
p1256
I3
sS'7000000278'
p1257
I65
sS'2010484004'
p1258
I4
sS'3300004251'
p1259
I26
sS'3300006472'
p1260
I4
sS'3300006391'
p1261
I13
sS'3300007596'
p1262
I2
sS'7000000188'
p1263
I76
sS'3300001479'
p1264
I1
sS'3300001476'
p1265
I1
sS'3300004573'
p1266
I17
sS'7000000184'
p1267
I71
sS'3300001475'
p1268
I2
sS'3300001472'
p1269
I8
sS'3300001473'
p1270
I315
sS'7000000180'
p1271
I8
sS'3300001471'
p1272
I186
sS'3300006396'
p1273
I17
sS'3300004253'
p1274
I41
sS'3300003830'
p1275
I529
sS'3300006397'
p1276
I3
sS'3300003837'
p1277
I7
sS'3300003838'
p1278
I199
sS'3300003839'
p1279
I1
sS'3300004252'
p1280
I20
sS'3300004318'
p1281
I18
sS'3300004319'
p1282
I19
sS'3300004310'
p1283
I7
sS'3300004311'
p1284
I9
sS'3300004312'
p1285
I4
sS'3300004313'
p1286
I9
sS'3300004642'
p1287
I19
sS'3300004315'
p1288
I17
sS'3300004316'
p1289
I16
sS'3300004317'
p1290
I15
sS'3300003342'
p1291
I26
sS'3300003343'
p1292
I36
sS'3300003340'
p1293
I4
sS'3300003346'
p1294
I123
sS'3300003347'
p1295
I13
sS'3300003345'
p1296
I101
sS'3300007661'
p1297
I207
sS'3300007660'
p1298
I18
sS'3300007663'
p1299
I78
sS'3300003349'
p1300
I21
sS'3300007665'
p1301
I134
sS'3300007664'
p1302
I84
sS'3300007667'
p1303
I171
sS'3300007666'
p1304
I103
sS'3300006640'
p1305
I291
sS'3300006641'
p1306
I530
sS'3300006642'
p1307
I661
sS'3300006643'
p1308
I181
sS'3300006644'
p1309
I5
sS'3300006645'
p1310
I5
sS'3300006646'
p1311
I10
sS'3300006647'
p1312
I6
sS'3300006648'
p1313
I16
sS'3300006649'
p1314
I53
sS'7000000105'
p1315
I1
sS'3300000123'
p1316
I43
sS'3300000122'
p1317
I13
sS'3300000121'
p1318
I34
sS'3300000120'
p1319
I92
sS'3300000127'
p1320
I181
sS'3300000126'
p1321
I61
sS'3300000125'
p1322
I18
sS'3300000124'
p1323
I190
sS'3300000129'
p1324
I140
sS'3300000128'
p1325
I275
sS'3300003166'
p1326
I9
sS'3300003167'
p1327
I7
sS'3300003164'
p1328
I3
sS'3300003162'
p1329
I22
sS'3300003691'
p1330
I163
sS'3300003692'
p1331
I35
sS'3300003693'
p1332
I25
sS'3300003168'
p1333
I4
sS'7000000687'
p1334
I60
sS'3300004512'
p1335
I3
sS'3300007659'
p1336
I46
sS'3300004513'
p1337
I3
sS'3300005299'
p1338
I2
sS'3300002565'
p1339
I164
sS'3300002564'
p1340
I144
sS'3300002561'
p1341
I297
sS'3300002560'
p1342
I233
sS'3300002563'
p1343
I192
sS'3300002562'
p1344
I310
sS'3300002569'
p1345
I269
sS'3300002568'
p1346
I2227
sS'3300005699'
p1347
I5
sS'3300005696'
p1348
I1
sS'3300005697'
p1349
I20
sS'3300005694'
p1350
I1
sS'3300005695'
p1351
I1
sS'3300005692'
p1352
I21
sS'3300005693'
p1353
I2
sS'3300005690'
p1354
I1
sS'3300005691'
p1355
I3
sS'3300004516'
p1356
I4
sS'3300005295'
p1357
I550
sS'3300007908'
p1358
I101
sS'3300007909'
p1359
I215
sS'3300006187'
p1360
I59
sS'3300006185'
p1361
I47
sS'2149837020'
p1362
I2
sS'2149837021'
p1363
I24
sS'2149837022'
p1364
I27
sS'2149837023'
p1365
I18
sS'2149837024'
p1366
I7
sS'2149837027'
p1367
I2
sS'3300007900'
p1368
I384
sS'3300005038'
p1369
I112
sS'3300005039'
p1370
I14
sS'3300005032'
p1371
I65
sS'3300005033'
p1372
I90
sS'3300005030'
p1373
I84
sS'3300005031'
p1374
I71
sS'3300005036'
p1375
I77
sS'3300005034'
p1376
I86
sS'3300005035'
p1377
I85
sS'3300007903'
p1378
I1
sS'3300007904'
p1379
I5
sS'3300007905'
p1380
I1
sS'3300008978'
p1381
I4
sS'3300008979'
p1382
I9
sS'3300007906'
p1383
I186
sS'3300008970'
p1384
I4
sS'3300008971'
p1385
I6
sS'3300008972'
p1386
I2
sS'3300007907'
p1387
I61
sS'3300008974'
p1388
I2
sS'3300008975'
p1389
I8
sS'3300008976'
p1390
I5
sS'3300008977'
p1391
I7
sS'7000000043'
p1392
I1
sS'7000000042'
p1393
I64
sS'7000000041'
p1394
I101
sS'7000000040'
p1395
I64
sS'3300001865'
p1396
I247
sS'7000000046'
p1397
I135
sS'3300001867'
p1398
I515
sS'3300001866'
p1399
I149
sS'3300001869'
p1400
I62
sS'3300001868'
p1401
I81
sS'7000000049'
p1402
I4
sS'7000000048'
p1403
I45
sS'3300007366'
p1404
I14
sS'3300004127'
p1405
I230
sS'3300004126'
p1406
I124
sS'3300004125'
p1407
I111
sS'3300004124'
p1408
I91
sS'3300004123'
p1409
I82
sS'3300004122'
p1410
I3
sS'3300004121'
p1411
I30
sS'3300004120'
p1412
I10
sS'3300004129'
p1413
I7
sS'3300004128'
p1414
I108
sS'3300006692'
p1415
I14
sS'3300004884'
p1416
I14
sS'3300008208'
p1417
I7
sS'3300008209'
p1418
I5
sS'3300008202'
p1419
I47
sS'3300008200'
p1420
I23
sS'3300008201'
p1421
I1
sS'3300008206'
p1422
I2
sS'3300008207'
p1423
I2
sS'3300008204'
p1424
I2
sS'3300008205'
p1425
I11
sS'3300002024'
p1426
I121
sS'2058419001'
p1427
I7
sS'2058419000'
p1428
I2
sS'2058419003'
p1429
I16
sS'2058419007'
p1430
I14
sS'2058419009'
p1431
I11
sS'2058419008'
p1432
I6
sS'3300006508'
p1433
I1
sS'3300004782'
p1434
I678
sS'3300004781'
p1435
I194
sS'3300004780'
p1436
I207
sS'3300004787'
p1437
I21
sS'3300004786'
p1438
I19
sS'3300004785'
p1439
I5
sS'3300004784'
p1440
I6
sS'3300004789'
p1441
I63
sS'3300004788'
p1442
I38
sS'3300006057'
p1443
I1048
sS'2189573031'
p1444
I12
sS'2189573028'
p1445
I41
sS'3300006502'
p1446
I104
sS'3300007474'
p1447
I3
sS'3300007463'
p1448
I4
sS'3300004887'
p1449
I33
sS'3300007477'
p1450
I1
sS'3300007470'
p1451
I5
sS'3300007472'
p1452
I3
sS'2189573026'
p1453
I41
sS'3300006696'
p1454
I13
sS'3300007478'
p1455
I7
sS'3300007461'
p1456
I3
sS'3300005883'
p1457
I31
sS'3300007460'
p1458
I2
sS'3300006781'
p1459
I2
sS'3300006780'
p1460
I1
sS'3300006782'
p1461
I5
sS'3300007467'
p1462
I3
sS'3300006789'
p1463
I50
sS'3300002358'
p1464
I7
sS'3300007466'
p1465
I5
sS'3300004875'
p1466
I51
sS'3300004874'
p1467
I32
sS'3300004877'
p1468
I60
sS'3300004876'
p1469
I55
sS'3300004871'
p1470
I37
sS'3300004870'
p1471
I62
sS'3300004873'
p1472
I31
sS'3300004872'
p1473
I30
sS'3300005887'
p1474
I59
sS'2189573020'
p1475
I116
sS'3300004879'
p1476
I17
sS'3300004878'
p1477
I9
sS'3300005886'
p1478
I54
sS'3300000493'
p1479
I9
sS'3300005885'
p1480
I60
sS'3300007788'
p1481
I427
sS'3300007789'
p1482
I15
sS'3300007786'
p1483
I17
sS'3300007787'
p1484
I36
sS'3300007784'
p1485
I321
sS'3300005884'
p1486
I53
sS'3300007782'
p1487
I28
sS'3300000491'
p1488
I13
sS'3300004881'
p1489
I27
sS'3300007781'
p1490
I2
sS'3300006983'
p1491
I7
sS'3300000490'
p1492
I8
sS'2100351008'
p1493
I23
sS'3300002353'
p1494
I5
sS'2100351007'
p1495
I58
sS'3300002350'
p1496
I6
sS'2100351000'
p1497
I203
sS'2100351001'
p1498
I26
sS'3300002351'
p1499
I22
sS'3300000495'
p1500
I13
sS'3300006987'
p1501
I69
sS'3300000494'
p1502
I48
sS'3300006986'
p1503
I3
sS'3300000329'
p1504
I91
sS'3300006985'
p1505
I39
sS'3300004669'
p1506
I9
sS'3300006984'
p1507
I22
sS'3300006259'
p1508
I63
sS'3300006258'
p1509
I33
sS'3300006253'
p1510
I104
sS'3300006252'
p1511
I15
sS'3300006251'
p1512
I48
sS'3300006250'
p1513
I84
sS'3300006257'
p1514
I58
sS'3300006256'
p1515
I60
sS'3300006255'
p1516
I94
sS'3300006254'
p1517
I59
sS'3300007311'
p1518
I6
sS'3300009038'
p1519
I1788
sS'3300007642'
p1520
I204
sS'3300009036'
p1521
I720
sS'3300009037'
p1522
I1289
sS'3300009034'
p1523
I4193
sS'3300009035'
p1524
I462
sS'3300009032'
p1525
I1260
sS'3300007313'
p1526
I4
sS'3300009030'
p1527
I1541
sS'3300009031'
p1528
I618
sS'3300003579'
p1529
I26
sS'3300003578'
p1530
I134
sS'3300007312'
p1531
I37
sS'3300003571'
p1532
I6
sS'3300003570'
p1533
I8
sS'3300003573'
p1534
I8
sS'3300003572'
p1535
I7
sS'3300003575'
p1536
I18
sS'3300003574'
p1537
I22
sS'3300003577'
p1538
I19
sS'3300003576'
p1539
I10
sS'3300007645'
p1540
I9
sS'3300007316'
p1541
I69
sS'3300002771'
p1542
I2
sS'3300002772'
p1543
I15
sS'3300002773'
p1544
I45
sS'3300002958'
p1545
I2
sS'3300002959'
p1546
I1
sS'3300006439'
p1547
I31
sS'3300006438'
p1548
I9
sS'3300002954'
p1549
I4
sS'3300002955'
p1550
I78
sS'3300002956'
p1551
I114
sS'3300002957'
p1552
I2
sS'3300006433'
p1553
I28
sS'3300004842'
p1554
I12
sS'3300006431'
p1555
I26
sS'3300006430'
p1556
I26
sS'3300005201'
p1557
I441
sS'3300005200'
p1558
I336
sS'3300005205'
p1559
I128
sS'3300005204'
p1560
I160
sS'3300005207'
p1561
I5
sS'3300005206'
p1562
I118
sS'3300005208'
p1563
I172
sS'3300004517'
p1564
I2
sS'3300004514'
p1565
I1
sS'3300004515'
p1566
I4
sS'2025206003'
p1567
I24
sS'2025206004'
p1568
I89
sS'3300006558'
p1569
I3
sS'3300008788'
p1570
I10
sS'3300008787'
p1571
I1
sS'3300008786'
p1572
I3
sS'3300008785'
p1573
I1
sS'3300006929'
p1574
I16
sS'3300006928'
p1575
I21
sS'3300006921'
p1576
I24
sS'3300006920'
p1577
I104
sS'3300006923'
p1578
I1
sS'3300006922'
p1579
I18
sS'3300006925'
p1580
I15
sS'3300006924'
p1581
I10
sS'3300006927'
p1582
I15
sS'3300006926'
p1583
I6
sS'3300006559'
p1584
I1
sS'3300008561'
p1585
I41
sS'3300008566'
p1586
I1
sS'3300008565'
p1587
I92
sS'3300008569'
p1588
I6
sS'3300008568'
p1589
I2
sS'7000000218'
p1590
I14
sS'7000000219'
p1591
I90
sS'7000000217'
p1592
I1
sS'7000000214'
p1593
I76
sS'7000000215'
p1594
I2
sS'7000000212'
p1595
I5
sS'7000000213'
p1596
I45
sS'7000000210'
p1597
I60
sS'7000000211'
p1598
I12
sS'3300001450'
p1599
I32
sS'3300001451'
p1600
I457
sS'3300001452'
p1601
I33
sS'3300001453'
p1602
I63
sS'3300001454'
p1603
I23
sS'3300001327'
p1604
I3
sS'3300001324'
p1605
I5
sS'3300001457'
p1606
I229
sS'3300001458'
p1607
I92
sS'3300001459'
p1608
I80
sS'3300001328'
p1609
I4
sS'3300001329'
p1610
I2
sS'3300007610'
p1611
I12
sS'3300004660'
p1612
I4
sS'3300004661'
p1613
I7
sS'3300000323'
p1614
I64
sS'3300000322'
p1615
I34
sS'3300000325'
p1616
I77
sS'3300000324'
p1617
I102
sS'3300000327'
p1618
I6
sS'3300004667'
p1619
I7
sS'3300004668'
p1620
I4
sS'3300000328'
p1621
I1
sS'3300000499'
p1622
I64
sS'3300003364'
p1623
I28
sS'3300003365'
p1624
I3
sS'3300003366'
p1625
I213
sS'3300003367'
p1626
I22
sS'3300007315'
p1627
I53
sS'3300007314'
p1628
I87
sS'3300007317'
p1629
I55
sS'3300003363'
p1630
I1
sS'3300007319'
p1631
I26
sS'3300007318'
p1632
I35
sS'3300007649'
p1633
I148
sS'3300007648'
p1634
I71
sS'3300003368'
p1635
I195
sS'3300003369'
p1636
I393
sS'3300007869'
p1637
I50
sS'3300007868'
p1638
I7
sS'3300007612'
p1639
I8
sS'3300006755'
p1640
I1859
sS'3300000145'
p1641
I49
sS'3300000144'
p1642
I12
sS'3300000147'
p1643
I7
sS'3300000146'
p1644
I29
sS'3300000141'
p1645
I58
sS'3300000140'
p1646
I39
sS'3300000143'
p1647
I5
sS'3300000142'
p1648
I52
sS'3300000149'
p1649
I67
sS'3300000148'
p1650
I56
sS'3300007614'
p1651
I454
sS'3300002899'
p1652
I48
sS'3300002895'
p1653
I68
sS'3300002894'
p1654
I18
sS'3300002897'
p1655
I5
sS'3300002896'
p1656
I8
sS'3300002893'
p1657
I6
sS'3300007616'
p1658
I99
sS'3300002095'
p1659
I27
sS'3300002094'
p1660
I21
sS'3300002097'
p1661
I15
sS'3300002096'
p1662
I56
sS'3300002091'
p1663
I17
sS'3300002090'
p1664
I51
sS'3300002093'
p1665
I50
sS'3300002092'
p1666
I19
sS'3300002099'
p1667
I31
sS'3300002098'
p1668
I10
sS'7000000168'
p1669
I17
sS'3300007617'
p1670
I268
sS'3300003148'
p1671
I7
sS'3300003149'
p1672
I5
sS'3300003140'
p1673
I67
sS'3300003141'
p1674
I59
sS'3300003142'
p1675
I95
sS'3300003143'
p1676
I75
sS'3300003144'
p1677
I96
sS'3300003145'
p1678
I99
sS'3300003146'
p1679
I103
sS'3300003147'
p1680
I87
sS'3300002239'
p1681
I86
sS'3300002238'
p1682
I23
sS'3300002549'
p1683
I159
sS'3300002548'
p1684
I15
sS'3300002231'
p1685
I1230
sS'3300002230'
p1686
I54
sS'3300002545'
p1687
I83
sS'3300002544'
p1688
I67
sS'3300002543'
p1689
I58
sS'3300002234'
p1690
I1
sS'3300002541'
p1691
I100
sS'3300002540'
p1692
I6
sS'2077657019'
p1693
I6
sS'2077657018'
p1694
I19
sS'2077657012'
p1695
I3
sS'2077657010'
p1696
I49
sS'2077657017'
p1697
I28
sS'2077657016'
p1698
I1
sS'2077657015'
p1699
I1
sS'2077657014'
p1700
I7
sS'3300005019'
p1701
I70
sS'3300005014'
p1702
I65
sS'3300005015'
p1703
I98
sS'3300005016'
p1704
I99
sS'3300005017'
p1705
I78
sS'3300005010'
p1706
I109
sS'3300005011'
p1707
I74
sS'3300005012'
p1708
I76
sS'3300005013'
p1709
I72
sS'3300008993'
p1710
I86
sS'3300008990'
p1711
I1
sS'3300008996'
p1712
I256
sS'3300008994'
p1713
I4
sS'3300008995'
p1714
I119
sS'3300008998'
p1715
I26
sS'3300008999'
p1716
I220
sS'7000000025'
p1717
I70
sS'7000000024'
p1718
I4
sS'7000000027'
p1719
I39
sS'7000000026'
p1720
I119
sS'7000000021'
p1721
I8
sS'7000000023'
p1722
I5
sS'7000000022'
p1723
I34
sS'7000000029'
p1724
I65
sS'7000000028'
p1725
I90
sS'3300008198'
p1726
I9
sS'3300008199'
p1727
I61
sS'3300008192'
p1728
I4
sS'3300008193'
p1729
I6
sS'3300008190'
p1730
I28
sS'3300008191'
p1731
I6
sS'3300008196'
p1732
I11
sS'3300008197'
p1733
I15
sS'3300008194'
p1734
I7
sS'3300001976'
p1735
I37
sS'3300000664'
p1736
I1
sS'3300000791'
p1737
I18
sS'3300000792'
p1738
I162
sS'3300000793'
p1739
I154
sS'3300008228'
p1740
I16
sS'3300008229'
p1741
I73
sS'3300008224'
p1742
I525
sS'3300008225'
p1743
I183
sS'3300008226'
p1744
I839
sS'3300008227'
p1745
I665
sS'3300008220'
p1746
I79
sS'3300008221'
p1747
I165
sS'3300008222'
p1748
I683
sS'3300008223'
p1749
I344
sS'7000000539'
p1750
I2
sS'7000000538'
p1751
I46
sS'7000000533'
p1752
I9
sS'7000000532'
p1753
I83
sS'7000000531'
p1754
I150
sS'7000000530'
p1755
I1
sS'7000000537'
p1756
I13
sS'7000000536'
p1757
I20
sS'7000000535'
p1758
I54
sS'7000000534'
p1759
I109
sS'3300002853'
p1760
I23
sS'3300007418'
p1761
I2
sS'3300007419'
p1762
I1
sS'3300007417'
p1763
I1
sS'3300007413'
p1764
I1
sS'3300007411'
p1765
I3
sS'3300001159'
p1766
I4
sS'3300001151'
p1767
I22
sS'3300001150'
p1768
I4
sS'3300001152'
p1769
I10
sS'3300001154'
p1770
I37
sS'3300001157'
p1771
I4
sS'3300004859'
p1772
I70
sS'3300004858'
p1773
I20
sS'3300004857'
p1774
I36
sS'3300004856'
p1775
I27
sS'3300004503'
p1776
I8
sS'3300004502'
p1777
I2
sS'3300004853'
p1778
I33
sS'3300004852'
p1779
I32
sS'3300004851'
p1780
I27
sS'3300004850'
p1781
I50
sS'2058419022'
p1782
I16
sS'2058419021'
p1783
I17
sS'2058419020'
p1784
I12
sS'7000000602'
p1785
I10
sS'3300006238'
p1786
I4
sS'3300006235'
p1787
I2
sS'3300006237'
p1788
I1203
sS'3300006231'
p1789
I3
sS'3300006230'
p1790
I1
sS'3300006233'
p1791
I2
sS'3300006232'
p1792
I6
sS'3300009010'
p1793
I72
sS'3300009011'
p1794
I696
sS'3300009012'
p1795
I3640
sS'3300009013'
p1796
I3
sS'3300009014'
p1797
I2460
sS'3300009015'
p1798
I2043
sS'3300009016'
p1799
I1949
sS'3300009017'
p1800
I2586
sS'3300009018'
p1801
I696
sS'3300004740'
p1802
I17
sS'3300003553'
p1803
I5
sS'3300003552'
p1804
I14
sS'3300003557'
p1805
I1
sS'3300003556'
p1806
I1
sS'3300003555'
p1807
I3
sS'3300003554'
p1808
I2
sS'3300003559'
p1809
I3
sS'3300003558'
p1810
I3
sS'3300000736'
p1811
I85
sS'3300000226'
p1812
I99
sS'3300002547'
p1813
I42
sS'3300002934'
p1814
I11
sS'3300002932'
p1815
I18
sS'3300002933'
p1816
I98
sS'3300002931'
p1817
I49
sS'3300002938'
p1818
I50
sS'3300000733'
p1819
I20
sS'3300000222'
p1820
I54
sS'7000000091'
p1821
I7
sS'3300000731'
p1822
I14
sS'3300002542'
p1823
I97
sS'7000000009'
p1824
I69
sS'7000000094'
p1825
I35
sS'7000000095'
p1826
I92
sS'7000000096'
p1827
I5
sS'7000000606'
p1828
I63
sS'7000000097'
p1829
I7
sS'7000000099'
p1830
I64
sS'3300008761'
p1831
I14
sS'3300008762'
p1832
I14
sS'3300008765'
p1833
I6
sS'3300008767'
p1834
I12
sS'3300008766'
p1835
I5
sS'3300008769'
p1836
I5
sS'3300008768'
p1837
I6
sS'3300006903'
p1838
I1132
sS'3300006902'
p1839
I788
sS'3300006901'
p1840
I208
sS'3300006900'
p1841
I788
sS'3300006907'
p1842
I74
sS'3300006906'
p1843
I49
sS'3300006905'
p1844
I68
sS'3300006904'
p1845
I1898
sS'3300006909'
p1846
I116
sS'3300006908'
p1847
I69
sS'3300005223'
p1848
I25
sS'3300005222'
p1849
I22
sS'3300005221'
p1850
I3
sS'3300005225'
p1851
I75
sS'3300004663'
p1852
I6
sS'3300008505'
p1853
I48
sS'3300008504'
p1854
I31
sS'3300008507'
p1855
I50
sS'3300008506'
p1856
I121
sS'3300008500'
p1857
I26
sS'3300008503'
p1858
I76
sS'3300008502'
p1859
I64
sS'3300008509'
p1860
I64
sS'3300008508'
p1861
I50
sS'7000000230'
p1862
I119
sS'7000000231'
p1863
I86
sS'7000000232'
p1864
I106
sS'7000000233'
p1865
I71
sS'7000000234'
p1866
I13
sS'7000000236'
p1867
I36
sS'3300004664'
p1868
I5
sS'7000000238'
p1869
I65
sS'7000000239'
p1870
I149
sS'3300004665'
p1871
I14
sS'3300001305'
p1872
I191
sS'3300004666'
p1873
I5
sS'3300001301'
p1874
I8
sS'3300001309'
p1875
I15
sS'3300004724'
p1876
I7
sS'7000000498'
p1877
I98
sS'7000000499'
p1878
I59
sS'7000000494'
p1879
I85
sS'7000000495'
p1880
I69
sS'7000000496'
p1881
I68
sS'7000000497'
p1882
I1
sS'7000000490'
p1883
I121
sS'7000000491'
p1884
I47
sS'7000000492'
p1885
I146
sS'7000000493'
p1886
I5
sS'7000000000'
p1887
I14
sS'2170459008'
p1888
I71
sS'2170459009'
p1889
I172
sS'2170459006'
p1890
I75
sS'2170459007'
p1891
I53
sS'2170459004'
p1892
I39
sS'2170459005'
p1893
I121
sS'2170459002'
p1894
I47
sS'2170459003'
p1895
I105
sS'2170459001'
p1896
I6
sS'3300000308'
p1897
I2
sS'2009439000'
p1898
I25
sS'3300000303'
p1899
I98
sS'3300000302'
p1900
I63
sS'3300000301'
p1901
I47
sS'3300000306'
p1902
I2
sS'3300000304'
p1903
I86
sS'3300007625'
p1904
I244
sS'3300007624'
p1905
I277
sS'3300007627'
p1906
I243
sS'3300007626'
p1907
I433
sS'3300007621'
p1908
I204
sS'3300007620'
p1909
I236
sS'3300007623'
p1910
I198
sS'3300007622'
p1911
I252
sS'3300007629'
p1912
I187
sS'3300007628'
p1913
I493
sS'3300000169'
p1914
I57
sS'3300000168'
p1915
I32
sS'3300000167'
p1916
I105
sS'3300000166'
p1917
I18
sS'3300000165'
p1918
I144
sS'3300000164'
p1919
I88
sS'3300000163'
p1920
I38
sS'3300000162'
p1921
I39
sS'3300000160'
p1922
I45
sS'3300004989'
p1923
I110
sS'2081372012'
p1924
I11
sS'2081372013'
p1925
I9
sS'2081372010'
p1926
I18
sS'2081372011'
p1927
I12
sS'3300007339'
p1928
I62
sS'3300007338'
p1929
I14
sS'3300003308'
p1930
I15
sS'3300003309'
p1931
I66
sS'3300003306'
p1932
I48
sS'3300003307'
p1933
I17
sS'3300003304'
p1934
I9
sS'3300003305'
p1935
I5
sS'3300003302'
p1936
I3
sS'3300004988'
p1937
I101
sS'3300003300'
p1938
I2
sS'3300003301'
p1939
I6
sS'3300000269'
p1940
I75
sS'3300006578'
p1941
I150
sS'3300006579'
p1942
I143
sS'3300006572'
p1943
I104
sS'3300006573'
p1944
I123
sS'3300006570'
p1945
I7
sS'3300006571'
p1946
I5
sS'3300006576'
p1947
I137
sS'3300006577'
p1948
I124
sS'3300006574'
p1949
I150
sS'3300006575'
p1950
I128
sS'3300004606'
p1951
I43
sS'2014031003'
p1952
I2
sS'2014031002'
p1953
I7
sS'2014031007'
p1954
I25
sS'2014031006'
p1955
I18
sS'2014031005'
p1956
I6
sS'2014031004'
p1957
I8
sS'3300002211'
p1958
I35
sS'3300002210'
p1959
I35
sS'3300002215'
p1960
I1
sS'3300002214'
p1961
I62
sS'3300002219'
p1962
I583
sS'3300004985'
p1963
I72
sS'3300007961'
p1964
I578
sS'3300004984'
p1965
I75
sS'7000000067'
p1966
I5
sS'3300004987'
p1967
I73
sS'2004247009'
p1968
I5
sS'2004247008'
p1969
I14
sS'2004247007'
p1970
I12
sS'2004247006'
p1971
I9
sS'2004247005'
p1972
I6
sS'2004247004'
p1973
I11
sS'2004247003'
p1974
I7
sS'2004247002'
p1975
I7
sS'2004247001'
p1976
I7
sS'2004247000'
p1977
I2
sS'3300004608'
p1978
I8
sS'3300004981'
p1979
I76
sS'3300005076'
p1980
I194
sS'3300005077'
p1981
I662
sS'3300005074'
p1982
I45
sS'3300005072'
p1983
I82
sS'3300005073'
p1984
I184
sS'3300005071'
p1985
I203
sS'3300005078'
p1986
I148
sS'3300005079'
p1987
I111
sS'3300004609'
p1988
I48
sS'3300006168'
p1989
I51
sS'3300007360'
p1990
I104
sS'3300006165'
p1991
I154
sS'3300000597'
p1992
I172
sS'3300006164'
p1993
I203
sS'3300000594'
p1994
I2
sS'3300009120'
p1995
I469
sS'3300009121'
p1996
I382
sS'3300009122'
p1997
I205
sS'3300009123'
p1998
I1257
sS'7000000141'
p1999
I2
sS'3300009124'
p2000
I318
sS'3300009125'
p2001
I596
sS'3300004750'
p2002
I24
sS'3300008244'
p2003
I42
sS'3300008245'
p2004
I9
sS'3300008242'
p2005
I5
sS'3300008243'
p2006
I34
sS'3300008240'
p2007
I13
sS'3300004751'
p2008
I33
sS'3300009127'
p2009
I1528
sS'3300004752'
p2010
I24
sS'3300008248'
p2011
I8
sS'3300008249'
p2012
I214
sS'3300009128'
p2013
I1097
sS'7000000559'
p2014
I57
sS'7000000558'
p2015
I18
sS'3300001799'
p2016
I30
sS'3300001798'
p2017
I63
sS'3300001797'
p2018
I13
sS'3300001796'
p2019
I67
sS'3300001795'
p2020
I60
sS'7000000004'
p2021
I15
sS'3300001793'
p2022
I51
sS'3300001792'
p2023
I35
sS'7000000001'
p2024
I69
sS'3300004027'
p2025
I204
sS'3300004024'
p2026
I334
sS'3300004757'
p2027
I5
sS'3300004758'
p2028
I11
sS'3300007248'
p2029
I36
sS'7000000208'
p2030
I124
sS'3300007430'
p2031
I2
sS'3300007431'
p2032
I2
sS'3300007433'
p2033
I2
sS'3300007434'
p2034
I1
sS'3300007435'
p2035
I3
sS'3300007436'
p2036
I1
sS'3300007437'
p2037
I2
sS'3300007438'
p2038
I2
sS'3300007439'
p2039
I1
sS'7000000675'
p2040
I45
sS'3300001173'
p2041
I7
sS'3300001172'
p2042
I11
sS'3300001170'
p2043
I22
sS'3300001177'
p2044
I3
sS'7000000676'
p2045
I140
sS'3300001175'
p2046
I34
sS'3300001174'
p2047
I9
sS'3300001179'
p2048
I2
sS'3300001178'
p2049
I3
sS'3300004523'
p2050
I5
sS'3300004522'
p2051
I4
sS'3300004521'
p2052
I6
sS'3300004520'
p2053
I2
sS'3300004527'
p2054
I13
sS'3300004526'
p2055
I2
sS'3300004525'
p2056
I7
sS'3300004939'
p2057
I73
sS'3300004529'
p2058
I8
sS'3300004528'
p2059
I11
sS'2009439003'
p2060
I17
sS'3300007590'
p2061
I345
sS'3300007597'
p2062
I278
sS'3300007367'
p2063
I28
sS'3300004926'
p2064
I46
sS'3300007594'
p2065
I1
sS'3300004242'
p2066
I643
sS'3300000290'
p2067
I63
sS'3300000293'
p2068
I37
sS'3300000292'
p2069
I43
sS'3300000295'
p2070
I60
sS'3300004935'
p2071
I62
sS'3300007298'
p2072
I70
sS'3300000297'
p2073
I103
sS'3300007294'
p2074
I48
sS'3300007295'
p2075
I93
sS'3300007296'
p2076
I47
sS'3300000296'
p2077
I68
sS'3300007290'
p2078
I33
sS'3300007291'
p2079
I448
sS'3300007292'
p2080
I10
sS'3300007611'
p2081
I79
sS'3300006217'
p2082
I271
sS'3300006216'
p2083
I11
sS'3300006215'
p2084
I1
sS'3300006214'
p2085
I6
sS'3300006213'
p2086
I538
sS'3300006212'
p2087
I2
sS'3300006747'
p2088
I57
sS'3300006210'
p2089
I1
sS'3300006749'
p2090
I9
sS'3300006748'
p2091
I88
sS'3300006219'
p2092
I2
sS'3300006218'
p2093
I15
sS'3300004923'
p2094
I45
sS'3300003537'
p2095
I84
sS'3300003533'
p2096
I1
sS'3300003539'
p2097
I170
sS'3300003538'
p2098
I80
sS'3300002918'
p2099
I96
sS'3300002919'
p2100
I165
sS'3300002910'
p2101
I79
sS'3300002911'
p2102
I125
sS'3300002912'
p2103
I232
sS'3300002913'
p2104
I333
sS'3300002914'
p2105
I341
sS'3300002915'
p2106
I30
sS'3300002916'
p2107
I65
sS'3300002917'
p2108
I287
sS'3300007302'
p2109
I5
sS'2003000007'
p2110
I19
sS'2003000006'
p2111
I18
sS'3300000497'
p2112
I46
sS'3300008749'
p2113
I40
sS'3300008748'
p2114
I66
sS'3300000496'
p2115
I54
sS'3300008743'
p2116
I142
sS'3300008742'
p2117
I71
sS'3300008741'
p2118
I2
sS'3300008740'
p2119
I128
sS'3300008747'
p2120
I42
sS'3300008746'
p2121
I137
sS'3300008745'
p2122
I73
sS'3300008744'
p2123
I96
sS'3300002665'
p2124
I1
sS'3300006965'
p2125
I18
sS'3300006964'
p2126
I4
sS'3300006967'
p2127
I18
sS'3300006961'
p2128
I16
sS'3300006960'
p2129
I26
sS'3300006963'
p2130
I1
sS'2001200004'
p2131
I26
sS'2001200003'
p2132
I17
sS'2001200002'
p2133
I29
sS'2001200001'
p2134
I59
sS'3300008916'
p2135
I3
sS'3300005249'
p2136
I10
sS'3300005248'
p2137
I16
sS'3300005245'
p2138
I16
sS'3300005244'
p2139
I7
sS'3300005247'
p2140
I19
sS'3300005246'
p2141
I11
sS'3300005241'
p2142
I12
sS'3300005240'
p2143
I12
sS'3300005243'
p2144
I11
sS'3300005242'
p2145
I14
sS'3300008529'
p2146
I1
sS'3300001330'
p2147
I5
sS'3300008527'
p2148
I6
sS'3300008526'
p2149
I2
sS'3300008524'
p2150
I66
sS'3300008523'
p2151
I89
sS'3300008522'
p2152
I66
sS'3300008521'
p2153
I40
sS'3300008520'
p2154
I115
sS'3300001332'
p2155
I2
sS'2019105002'
p2156
I6
sS'2019105003'
p2157
I1
sS'2019105001'
p2158
I13
sS'3300001368'
p2159
I293
sS'3300001369'
p2160
I9
sS'3300001366'
p2161
I4
sS'3300001367'
p2162
I4
sS'3300001364'
p2163
I3
sS'3300001365'
p2164
I3
sS'3300001363'
p2165
I2
sS'3300001360'
p2166
I3
sS'3300001361'
p2167
I55
sS'2170459020'
p2168
I81
sS'2170459021'
p2169
I103
sS'2170459022'
p2170
I12
sS'2170459023'
p2171
I17
sS'2170459024'
p2172
I43
sS'7000000618'
p2173
I110
sS'3300001589'
p2174
I63
sS'3300001582'
p2175
I21
sS'7000000613'
p2176
I6
sS'3300001580'
p2177
I1062
sS'3300001581'
p2178
I32
sS'7000000616'
p2179
I68
sS'3300001587'
p2180
I35
sS'3300001584'
p2181
I6
sS'3300001585'
p2182
I16
sS'3300000369'
p2183
I16
sS'3300000365'
p2184
I471
sS'3300000364'
p2185
I1283
sS'3300000367'
p2186
I102
sS'3300000366'
p2187
I121
sS'3300000361'
p2188
I96
sS'3300000360'
p2189
I99
sS'3300000363'
p2190
I627
sS'3300000362'
p2191
I571
sS'3300000181'
p2192
I43
sS'3300000180'
p2193
I5
sS'3300000183'
p2194
I16
sS'3300000182'
p2195
I7
sS'3300000185'
p2196
I25
sS'3300000184'
p2197
I57
sS'3300000187'
p2198
I63
sS'3300000186'
p2199
I13
sS'3300000189'
p2200
I79
sS'3300000188'
p2201
I14
sS'3300004952'
p2202
I88
sS'3300000980'
p2203
I364
sS'3300000983'
p2204
I291
sS'3300000982'
p2205
I8
sS'3300000985'
p2206
I4
sS'3300000984'
p2207
I5
sS'3300000986'
p2208
I12
sS'3300006123'
p2209
I56
sS'3300003988'
p2210
I287
sS'3300003325'
p2211
I4
sS'3300003326'
p2212
I8
sS'3300003327'
p2213
I28
sS'3300003328'
p2214
I32
sS'3300003329'
p2215
I41
sS'3300003986'
p2216
I103
sS'3300003987'
p2217
I291
sS'3300003980'
p2218
I19
sS'3300003981'
p2219
I75
sS'3300007353'
p2220
I87
sS'3300007352'
p2221
I100
sS'3300006002'
p2222
I310
sS'3300006003'
p2223
I25
sS'3300002053'
p2224
I1846
sS'3300002052'
p2225
I624
sS'3300002055'
p2226
I40
sS'3300002054'
p2227
I52
sS'3300002057'
p2228
I52
sS'3300002056'
p2229
I67
sS'3300002059'
p2230
I65
sS'3300002058'
p2231
I73
sS'7000000576'
p2232
I80
sS'3300005288'
p2233
I330
sS'3300007462'
p2234
I6
sS'3300004640'
p2235
I20
sS'3300003185'
p2236
I144
sS'3300003187'
p2237
I418
sS'3300002275'
p2238
I12
sS'3300002274'
p2239
I5
sS'3300002277'
p2240
I2
sS'3300002276'
p2241
I30
sS'3300002271'
p2242
I18
sS'3300002270'
p2243
I3
sS'3300002273'
p2244
I3
sS'3300002272'
p2245
I3
sS'3300002279'
p2246
I27
sS'3300002278'
p2247
I4
sS'3300006127'
p2248
I60
sS'3300007979'
p2249
I113
sS'3300007978'
p2250
I84
sS'3300007971'
p2251
I58
sS'3300007970'
p2252
I88
sS'3300007973'
p2253
I328
sS'3300007972'
p2254
I251
sS'3300007975'
p2255
I54
sS'3300007974'
p2256
I243
sS'3300007977'
p2257
I100
sS'3300007976'
p2258
I131
sS'3300005586'
p2259
I819
sS'3300005587'
p2260
I738
sS'3300005584'
p2261
I219
sS'3300005585'
p2262
I283
sS'3300005582'
p2263
I164
sS'3300005583'
p2264
I242
sS'3300005580'
p2265
I219
sS'3300005581'
p2266
I182
sS'7000000572'
p2267
I1
sS'3300005588'
p2268
I1207
sS'3300005589'
p2269
I991
sS'3300002589'
p2270
I1
sS'3300002588'
p2271
I1
sS'3300002586'
p2272
I1
sS'3300005058'
p2273
I271
sS'3300005059'
p2274
I17
sS'3300005722'
p2275
I14
sS'3300005051'
p2276
I117
sS'3300005052'
p2277
I129
sS'3300005053'
p2278
I144
sS'3300005054'
p2279
I143
sS'3300005055'
p2280
I120
sS'3300005056'
p2281
I230
sS'3300005057'
p2282
I26
sS'7000000570'
p2283
I47
sS'2209111015'
p2284
I106
sS'2209111014'
p2285
I2
sS'2209111016'
p2286
I4
sS'2209111019'
p2287
I15
sS'2209111018'
p2288
I244
sS'3300002871'
p2289
I2
sS'3300003995'
p2290
I240
sS'7000000745'
p2291
I77
sS'7000000746'
p2292
I3
sS'3300008268'
p2293
I219
sS'3300008269'
p2294
I91
sS'7000000747'
p2295
I13
sS'3300008260'
p2296
I117
sS'3300008261'
p2297
I365
sS'3300008262'
p2298
I344
sS'3300008263'
p2299
I31
sS'3300008264'
p2300
I25
sS'3300008265'
p2301
I30
sS'3300008266'
p2302
I3
sS'3300003994'
p2303
I229
sS'2156126007'
p2304
I5
sS'7000000742'
p2305
I80
sS'3300002036'
p2306
I180
sS'2156126005'
p2307
I9
sS'3300001771'
p2308
I47
sS'3300001770'
p2309
I12
sS'3300001805'
p2310
I19
sS'3300001772'
p2311
I1
sS'3300001774'
p2312
I3
sS'7000000571'
p2313
I40
sS'3300001776'
p2314
I70
sS'3300001779'
p2315
I10
sS'3300002033'
p2316
I319
sS'3300001809'
p2317
I13
sS'3300001808'
p2318
I10
sS'3300004093'
p2319
I57
sS'3300004092'
p2320
I3183
sS'3300004091'
p2321
I1299
sS'3300004090'
p2322
I1
sS'3300004097'
p2323
I2844
sS'3300006066'
p2324
I2
sS'3300004095'
p2325
I75
sS'3300004094'
p2326
I24
sS'3300004729'
p2327
I5
sS'3300004728'
p2328
I15
sS'3300004099'
p2329
I3
sS'3300006067'
p2330
I7
sS'7000000510'
p2331
I133
sS'3300001115'
p2332
I6
sS'3300001114'
p2333
I4
sS'3300001117'
p2334
I19
sS'3300001116'
p2335
I1
sS'3300001113'
p2336
I9
sS'3300001112'
p2337
I11
sS'3300002038'
p2338
I274
sS'3300004545'
p2339
I23
sS'3300004544'
p2340
I6
sS'3300004547'
p2341
I19
sS'3300004546'
p2342
I21
sS'3300004541'
p2343
I20
sS'3300004540'
p2344
I17
sS'3300004543'
p2345
I9
sS'3300004542'
p2346
I21
sS'7000000578'
p2347
I1
sS'3300004549'
p2348
I18
sS'3300004548'
p2349
I16
sS'3300002874'
p2350
I8
sS'3300000315'
p2351
I1
sS'3300000316'
p2352
I44
sS'7000000515'
p2353
I195
sS'3300006312'
p2354
I45
sS'3300000317'
p2355
I45
sS'3300000310'
p2356
I84
sS'3300006310'
p2357
I1347
sS'3300000311'
p2358
I229
sS'3300006311'
p2359
I157
sS'3300000312'
p2360
I33
sS'3300006316'
p2361
I264
sS'3300006317'
p2362
I103
sS'3300002347'
p2363
I75
sS'3300006315'
p2364
I117
sS'7000000345'
p2365
I15
sS'3300006768'
p2366
I33
sS'3300006763'
p2367
I1
sS'3300006767'
p2368
I38
sS'3300006766'
p2369
I1
sS'3300004899'
p2370
I74
sS'3300004898'
p2371
I59
sS'3300004893'
p2372
I44
sS'3300004892'
p2373
I33
sS'3300004891'
p2374
I43
sS'3300004890'
p2375
I37
sS'3300004897'
p2376
I44
sS'3300004896'
p2377
I37
sS'3300004895'
p2378
I38
sS'3300004894'
p2379
I37
sS'3300007636'
p2380
I59
sS'3300007018'
p2381
I46
sS'3300007019'
p2382
I1
sS'3300003518'
p2383
I45
sS'3300003517'
p2384
I1
sS'3300003516'
p2385
I2
sS'7000000516'
p2386
I106
sS'3300003514'
p2387
I34
sS'3300007016'
p2388
I43
sS'3300007017'
p2389
I40
sS'3300007014'
p2390
I1
sS'3300007015'
p2391
I20
sS'3300007635'
p2392
I617
sS'3300007632'
p2393
I213
sS'3300007633'
p2394
I534
sS'3300006499'
p2395
I83
sS'3300006498'
p2396
I130
sS'3300006495'
p2397
I1
sS'3300006494'
p2398
I1
sS'3300006496'
p2399
I43
sS'3300006491'
p2400
I2
sS'3300004501'
p2401
I8
sS'3300004500'
p2402
I3
sS'3300004855'
p2403
I24
sS'3300004854'
p2404
I39
sS'3300004505'
p2405
I3
sS'3300004504'
p2406
I3
sS'3300004507'
p2407
I1
sS'3300004506'
p2408
I5
sS'3300008729'
p2409
I60
sS'3300008728'
p2410
I81
sS'3300008725'
p2411
I74
sS'3300008724'
p2412
I5
sS'3300008727'
p2413
I81
sS'3300008726'
p2414
I24
sS'3300008721'
p2415
I4
sS'3300008720'
p2416
I13
sS'3300008723'
p2417
I3
sS'3300008722'
p2418
I101
sS'3300006949'
p2419
I274
sS'3300006948'
p2420
I78
sS'3300006947'
p2421
I343
sS'3300006946'
p2422
I254
sS'3300006945'
p2423
I129
sS'3300006944'
p2424
I29
sS'3300006943'
p2425
I21
sS'3300002641'
p2426
I4461
sS'3300006941'
p2427
I16
sS'3300006940'
p2428
I145
sS'3300005267'
p2429
I15
sS'3300005910'
p2430
I51
sS'3300005265'
p2431
I305
sS'3300005264'
p2432
I255
sS'3300005263'
p2433
I417
sS'3300005262'
p2434
I182
sS'3300005261'
p2435
I107
sS'3300005916'
p2436
I567
sS'3300005919'
p2437
I458
sS'3300005918'
p2438
I137
sS'3300005269'
p2439
I16
sS'3300005268'
p2440
I8
sS'3300008097'
p2441
I459
sS'3300008096'
p2442
I184
sS'3300008095'
p2443
I297
sS'3300008094'
p2444
I316
sS'3300008093'
p2445
I325
sS'3300008092'
p2446
I7
sS'3300008091'
p2447
I90
sS'3300008090'
p2448
I85
sS'3300008099'
p2449
I80
sS'3300008098'
p2450
I151
sS'7000000711'
p2451
I8
sS'7000000553'
p2452
I37
sS'7000000710'
p2453
I25
sS'3300001340'
p2454
I166
sS'3300001341'
p2455
I97
sS'3300001343'
p2456
I15
sS'3300001344'
p2457
I177
sS'3300001345'
p2458
I46
sS'3300001346'
p2459
I280
sS'3300001347'
p2460
I216
sS'3300001348'
p2461
I268
sS'3300001349'
p2462
I228
sS'7000000552'
p2463
I17
sS'7000000638'
p2464
I21
sS'7000000639'
p2465
I11
sS'7000000634'
p2466
I2
sS'7000000635'
p2467
I51
sS'7000000637'
p2468
I7
sS'7000000630'
p2469
I39
sS'7000000631'
p2470
I22
sS'7000000632'
p2471
I72
sS'7000000633'
p2472
I70
sS'2070309010'
p2473
I8
sS'2070309017'
p2474
I117
sS'3300000347'
p2475
I44
sS'3300004391'
p2476
I83
sS'3300000345'
p2477
I32
sS'3300004393'
p2478
I81
sS'3300000343'
p2479
I13
sS'3300000342'
p2480
I23
sS'3300000437'
p2481
I35
sS'3300000436'
p2482
I29
sS'3300004398'
p2483
I99
sS'3300004399'
p2484
I81
sS'3300000349'
p2485
I7
sS'3300000348'
p2486
I8
sS'3300004978'
p2487
I82
sS'3300004979'
p2488
I62
sS'3300004974'
p2489
I43
sS'3300004975'
p2490
I12
sS'3300004976'
p2491
I35
sS'3300004977'
p2492
I21
sS'3300004970'
p2493
I15
sS'3300004971'
p2494
I29
sS'3300004972'
p2495
I18
sS'3300004973'
p2496
I20
sS'3300007375'
p2497
I1
sS'3300007379'
p2498
I1
sS'3300006024'
p2499
I276
sS'3300006025'
p2500
I224
sS'3300006026'
p2501
I184
sS'3300006027'
p2502
I176
sS'3300006020'
p2503
I70
sS'3300006021'
p2504
I29
sS'3300006023'
p2505
I84
sS'3300006028'
p2506
I1895
sS'3300006029'
p2507
I74
sS'2022827001'
p2508
I27
sS'2040502001'
p2509
I32
sS'2040502000'
p2510
I143
sS'2040502003'
p2511
I17
sS'2040502002'
p2512
I21
sS'3300007953'
p2513
I12
sS'3300007952'
p2514
I1
sS'3300007951'
p2515
I5
sS'3300007950'
p2516
I12
sS'3300007957'
p2517
I14
sS'3300007956'
p2518
I137
sS'3300007955'
p2519
I20
sS'3300007954'
p2520
I189
sS'3300007959'
p2521
I428
sS'3300007958'
p2522
I7
sS'3300002073'
p2523
I53
sS'3300002072'
p2524
I349
sS'3300002071'
p2525
I678
sS'3300002070'
p2526
I72
sS'3300002077'
p2527
I113
sS'3300002076'
p2528
I63
sS'3300002075'
p2529
I122
sS'3300002074'
p2530
I45
sS'3300003702'
p2531
I298
sS'3300003700'
p2532
I5
sS'3300003701'
p2533
I4
sS'3300002259'
p2534
I6
sS'3300005701'
p2535
I1
sS'3300005702'
p2536
I1
sS'3300004400'
p2537
I116
sS'3300004401'
p2538
I4
sS'3300004402'
p2539
I1
sS'3300009019'
p2540
I2652
sS'3300004404'
p2541
I2
sS'3300004405'
p2542
I1
sS'3300004406'
p2543
I7
sS'3300004407'
p2544
I4
sS'7000000122'
p2545
I33
sS'7000000125'
p2546
I67
sS'3300008282'
p2547
I94
sS'3300008283'
p2548
I87
sS'3300008280'
p2549
I59
sS'3300008281'
p2550
I159
sS'3300001746'
p2551
I21
sS'3300008284'
p2552
I5
sS'3300001753'
p2553
I702
sS'3300001752'
p2554
I646
sS'3300001751'
p2555
I566
sS'3300001750'
p2556
I421
sS'7000000554'
p2557
I74
sS'3300001286'
p2558
I6
sS'3300001281'
p2559
I85
sS'3300001282'
p2560
I221
sS'3300001289'
p2561
I2
sS'3300001288'
p2562
I8
sS'3300007347'
p2563
I56
sS'7000000557'
p2564
I3
sS'3300001139'
p2565
I88
sS'3300001137'
p2566
I17
sS'3300001136'
p2567
I108
sS'3300001133'
p2568
I8
sS'3300001132'
p2569
I4
sS'3300001131'
p2570
I38
sS'7000000551'
p2571
I3
sS'7000000550'
p2572
I110
sS'3300000089'
p2573
I148
sS'3300004709'
p2574
I4
sS'3300004708'
p2575
I4
sS'3300004703'
p2576
I9
sS'3300004702'
p2577
I3
sS'3300004701'
p2578
I1
sS'3300000083'
p2579
I43
sS'3300000084'
p2580
I73
sS'3300000085'
p2581
I58
sS'3300004705'
p2582
I4
sS'3300004704'
p2583
I1
sS'3300003289'
p2584
I1
sS'3300003288'
p2585
I1
sS'3300003285'
p2586
I1
sS'3300003282'
p2587
I43
sS'3300003281'
p2588
I57
sS'3300007995'
p2589
I24
sS'3300007579'
p2590
I13
sS'3300007578'
p2591
I16
sS'3300006709'
p2592
I12
sS'3300006708'
p2593
I6
sS'3300006705'
p2594
I2
sS'3300006704'
p2595
I11
sS'3300006707'
p2596
I15
sS'3300006706'
p2597
I20
sS'3300006701'
p2598
I13
sS'3300006700'
p2599
I16
sS'3300006703'
p2600
I5
sS'3300006702'
p2601
I11
sS'2065487011'
p2602
I18
sS'3300000881'
p2603
I62
sS'3300000882'
p2604
I121
sS'3300000883'
p2605
I173
sS'3300000668'
p2606
I1
sS'3300000885'
p2607
I36
sS'3300000886'
p2608
I43
sS'3300000887'
p2609
I88
sS'3300004567'
p2610
I8
sS'2065487018'
p2611
I37
sS'3300004565'
p2612
I13
sS'3300004564'
p2613
I8
sS'3300004563'
p2614
I3
sS'3300000661'
p2615
I1
sS'3300004561'
p2616
I10
sS'3300004560'
p2617
I5
sS'3300007038'
p2618
I7
sS'3300007039'
p2619
I24
sS'3300007034'
p2620
I13
sS'3300007035'
p2621
I35
sS'3300007036'
p2622
I50
sS'3300007037'
p2623
I54
sS'3300007030'
p2624
I47
sS'3300007031'
p2625
I42
sS'3300007032'
p2626
I42
sS'3300007033'
p2627
I18
sS'3300007993'
p2628
I93
sS'3300007992'
p2629
I466
sS'7000000087'
p2630
I81
sS'3300001240'
p2631
I29
sS'3300001243'
p2632
I2
sS'3300007991'
p2633
I151
sS'3300001242'
p2634
I95
sS'3300001245'
p2635
I242
sS'7000000082'
p2636
I82
sS'3300001247'
p2637
I4
sS'7000000080'
p2638
I3
sS'3300008707'
p2639
I28
sS'3300008705'
p2640
I91
sS'3300008875'
p2641
I4
sS'3300008702'
p2642
I4
sS'3300008700'
p2643
I47
sS'2030936006'
p2644
I37
sS'2030936005'
p2645
I39
sS'2030936003'
p2646
I20
sS'2030936001'
p2647
I19
sS'2030936000'
p2648
I64
sS'3300005939'
p2649
I365
sS'3300005938'
p2650
I312
sS'3300005933'
p2651
I137
sS'3300005932'
p2652
I382
sS'3300005931'
p2653
I100
sS'3300005930'
p2654
I57
sS'3300005937'
p2655
I1218
sS'3300005936'
p2656
I488
sS'3300005935'
p2657
I91
sS'3300005934'
p2658
I289
sS'2084038015'
p2659
I2
sS'2084038011'
p2660
I3
sS'2084038013'
p2661
I51
sS'2084038018'
p2662
I20
sS'2228664046'
p2663
I2
sS'2228664047'
p2664
I5
sS'7000000432'
p2665
I80
sS'7000000433'
p2666
I77
sS'7000000430'
p2667
I13
sS'7000000431'
p2668
I51
sS'7000000388'
p2669
I69
sS'7000000389'
p2670
I58
sS'7000000434'
p2671
I66
sS'7000000435'
p2672
I6
sS'7000000384'
p2673
I2
sS'7000000385'
p2674
I55
sS'7000000386'
p2675
I55
sS'7000000387'
p2676
I4
sS'7000000380'
p2677
I150
sS'7000000381'
p2678
I2
sS'7000000382'
p2679
I7
sS'7000000383'
p2680
I1
sS'7000000656'
p2681
I37
sS'7000000657'
p2682
I22
sS'7000000654'
p2683
I63
sS'7000000655'
p2684
I50
sS'7000000652'
p2685
I121
sS'7000000653'
p2686
I81
sS'7000000650'
p2687
I105
sS'7000000651'
p2688
I160
sS'7000000658'
p2689
I36
sS'7000000659'
p2690
I60
sS'3300000418'
p2691
I78
sS'3300000412'
p2692
I7
sS'3300000044'
p2693
I28
sS'3300000045'
p2694
I12
sS'3300004916'
p2695
I44
sS'3300004917'
p2696
I69
sS'3300004914'
p2697
I66
sS'3300004915'
p2698
I30
sS'3300004912'
p2699
I71
sS'3300004913'
p2700
I52
sS'3300004910'
p2701
I28
sS'3300004911'
p2702
I39
sS'3300004918'
p2703
I59
sS'3300004919'
p2704
I40
sS'7000000189'
p2705
I6
sS'3300003498'
p2706
I84
sS'3300003499'
p2707
I73
sS'3300003492'
p2708
I72
sS'3300003493'
p2709
I75
sS'3300003490'
p2710
I58
sS'3300003491'
p2711
I63
sS'3300003496'
p2712
I128
sS'3300003497'
p2713
I133
sS'3300003494'
p2714
I90
sS'3300003495'
p2715
I88
sS'3300007934'
p2716
I5
sS'3300007937'
p2717
I12
sS'3300007936'
p2718
I7
sS'3300007932'
p2719
I25
sS'3300007938'
p2720
I20
sS'3300006048'
p2721
I1080
sS'3300006049'
p2722
I669
sS'3300006046'
p2723
I1459
sS'3300006047'
p2724
I897
sS'3300006044'
p2725
I170
sS'3300006045'
p2726
I1914
sS'3300006042'
p2727
I574
sS'3300006043'
p2728
I44
sS'3300006040'
p2729
I66
sS'3300006041'
p2730
I550
sS'3300005542'
p2731
I794
sS'3300005543'
p2732
I1286
sS'3300005540'
p2733
I631
sS'3300005541'
p2734
I921
sS'3300005546'
p2735
I1255
sS'3300005899'
p2736
I78
sS'3300005544'
p2737
I1104
sS'3300005545'
p2738
I1084
sS'3300005894'
p2739
I47
sS'3300005895'
p2740
I59
sS'3300005548'
p2741
I1982
sS'3300005897'
p2742
I65
sS'3300005890'
p2743
I57
sS'3300005891'
p2744
I89
sS'3300005892'
p2745
I74
sS'3300005893'
p2746
I67
sS'3300003728'
p2747
I10
sS'3300003729'
p2748
I2
sS'3300003726'
p2749
I2
sS'3300003727'
p2750
I2
sS'3300003720'
p2751
I18
sS'3300003721'
p2752
I10
sS'3300003723'
p2753
I1
sS'2007427000'
p2754
I71
sS'3300006104'
p2755
I203
sS'3300005094'
p2756
I4
sS'3300005095'
p2757
I264
sS'3300005764'
p2758
I7072
sS'3300005097'
p2759
I22
sS'3300005762'
p2760
I4
sS'3300005763'
p2761
I2
sS'3300005760'
p2762
I4
sS'3300005761'
p2763
I15
sS'3300005098'
p2764
I236
sS'3300005099'
p2765
I423
sS'3300006622'
p2766
I144
sS'3300006623'
p2767
I4
sS'3300006620'
p2768
I102
sS'3300002104'
p2769
I267
sS'3300006154'
p2770
I56
sS'3300007870'
p2771
I1
sS'3300006627'
p2772
I37
sS'3300002101'
p2773
I242
sS'3300006625'
p2774
I8
sS'3300008112'
p2775
I28
sS'3300008113'
p2776
I69
sS'3300008110'
p2777
I56
sS'3300008111'
p2778
I182
sS'3300008116'
p2779
I73
sS'3300008117'
p2780
I315
sS'3300008114'
p2781
I225
sS'3300008115'
p2782
I84
sS'3300008118'
p2783
I33
sS'3300008119'
p2784
I198
sS'3300009137'
p2785
I3542
sS'3300009136'
p2786
I693
sS'3300009135'
p2787
I627
sS'3300009134'
p2788
I46
sS'3300009133'
p2789
I288
sS'3300009132'
p2790
I778
sS'3300000596'
p2791
I27
sS'3300001739'
p2792
I22
sS'3300001738'
p2793
I42
sS'3300004746'
p2794
I15
sS'3300001735'
p2795
I8
sS'3300001734'
p2796
I19
sS'3300001737'
p2797
I41
sS'3300001736'
p2798
I25
sS'3300001731'
p2799
I25
sS'3300001730'
p2800
I30
sS'3300001733'
p2801
I19
sS'3300001732'
p2802
I38
sS'3300000595'
p2803
I26
sS'3300007874'
p2804
I2
sS'3300000592'
p2805
I63
sS'3300000041'
p2806
I35
sS'3300004741'
p2807
I13
sS'3300000043'
p2808
I22
sS'3300007875'
p2809
I1
sS'7000000666'
p2810
I73
sS'7000000665'
p2811
I65
sS'7000000237'
p2812
I35
sS'3300000912'
p2813
I8
sS'3300000913'
p2814
I29
sS'3300007217'
p2815
I10
sS'3300004929'
p2816
I74
sS'3300004928'
p2817
I63
sS'3300000062'
p2818
I532
sS'3300000063'
p2819
I8
sS'3300000060'
p2820
I85
sS'3300000061'
p2821
I20
sS'3300004769'
p2822
I86
sS'3300004768'
p2823
I35
sS'3300000064'
p2824
I29
sS'3300000065'
p2825
I16
sS'3300004765'
p2826
I15
sS'3300004764'
p2827
I11
sS'3300004767'
p2828
I25
sS'3300004766'
p2829
I14
sS'3300004761'
p2830
I24
sS'3300004760'
p2831
I17
sS'3300004763'
p2832
I33
sS'3300004762'
p2833
I3
sS'3300007232'
p2834
I100
sS'3300007233'
p2835
I36
sS'3300003263'
p2836
I44
sS'3300000919'
p2837
I63
sS'3300003265'
p2838
I54
sS'3300003264'
p2839
I56
sS'3300007234'
p2840
I153
sS'3300007235'
p2841
I47
sS'3300003269'
p2842
I77
sS'3300003268'
p2843
I68
sS'3300007586'
p2844
I8
sS'3300007239'
p2845
I25
sS'3300007580'
p2846
I14
sS'3300007581'
p2847
I17
sS'3300007582'
p2848
I16
sS'3300004254'
p2849
I38
sS'3300004921'
p2850
I58
sS'3300004256'
p2851
I29
sS'3300006727'
p2852
I14
sS'3300006726'
p2853
I27
sS'3300006725'
p2854
I3
sS'3300006724'
p2855
I2
sS'3300006722'
p2856
I27
sS'3300006721'
p2857
I21
sS'3300006720'
p2858
I32
sS'3300006729'
p2859
I31
sS'3300006728'
p2860
I20
sS'3300004581'
p2861
I22
sS'3300004580'
p2862
I19
sS'3300004583'
p2863
I13
sS'3300004582'
p2864
I13
sS'3300004585'
p2865
I17
sS'3300004584'
p2866
I31
sS'3300004587'
p2867
I8
sS'3300004586'
p2868
I11
sS'3300004589'
p2869
I13
sS'3300004588'
p2870
I27
sS'3300007056'
p2871
I28
sS'3300007057'
p2872
I30
sS'3300007054'
p2873
I9
sS'3300007055'
p2874
I5
sS'3300007052'
p2875
I26
sS'3300007053'
p2876
I25
sS'3300007050'
p2877
I10
sS'3300007051'
p2878
I50
sS'3300007058'
p2879
I11
sS'3300007059'
p2880
I37
sS'3300006183'
p2881
I54
sS'3300006182'
p2882
I57
sS'3300006181'
p2883
I22
sS'3300006180'
p2884
I8
sS'2020627003'
p2885
I39
sS'3300006186'
p2886
I780
sS'2020627001'
p2887
I1
sS'3300006184'
p2888
I33
sS'3300006189'
p2889
I72
sS'3300006188'
p2890
I66
sS'3300000386'
p2891
I32
sS'3300002608'
p2892
I1
sS'3300006989'
p2893
I1
sS'3300006988'
p2894
I65
sS'3300002352'
p2895
I92
sS'3300002601'
p2896
I1
sS'3300002602'
p2897
I1
sS'3300002603'
p2898
I1
sS'3300002356'
p2899
I1
sS'3300002357'
p2900
I1
sS'3300002354'
p2901
I10
sS'3300002355'
p2902
I8
sS'3300005959'
p2903
I14
sS'3300005958'
p2904
I18
sS'3300005955'
p2905
I33
sS'3300005954'
p2906
I40
sS'3300005957'
p2907
I28
sS'3300005956'
p2908
I57
sS'3300005951'
p2909
I350
sS'3300005950'
p2910
I110
sS'3300005953'
p2911
I216
sS'3300005952'
p2912
I218
sS'2140918032'
p2913
I88
sS'3300008188'
p2914
I16
sS'3300008856'
p2915
I1
sS'3300008184'
p2916
I14
sS'3300005379'
p2917
I11
sS'3300005378'
p2918
I14
sS'3300005371'
p2919
I2
sS'3300005370'
p2920
I1
sS'3300005373'
p2921
I2
sS'3300005372'
p2922
I5
sS'3300005377'
p2923
I4
sS'3300005376'
p2924
I3
sS'2228664024'
p2925
I12
sS'2228664022'
p2926
I182
sS'2228664023'
p2927
I3
sS'2228664020'
p2928
I5
sS'2228664021'
p2929
I319
sS'3300008589'
p2930
I64
sS'3300008585'
p2931
I36
sS'3300008587'
p2932
I2
sS'3300008586'
p2933
I1
sS'3300008581'
p2934
I74
sS'7000000415'
p2935
I3
sS'7000000416'
p2936
I102
sS'7000000417'
p2937
I56
sS'7000000410'
p2938
I43
sS'7000000411'
p2939
I101
sS'7000000412'
p2940
I1
sS'7000000413'
p2941
I4
sS'7000000418'
p2942
I111
sS'3300000479'
p2943
I2
sS'3300000475'
p2944
I3
sS'3300000477'
p2945
I257
sS'3300000476'
p2946
I6
sS'3300000471'
p2947
I1
sS'3300000470'
p2948
I44
sS'3300000473'
p2949
I5
sS'3300008329'
p2950
I3
sS'3300008328'
p2951
I70
sS'3300008321'
p2952
I1
sS'3300008325'
p2953
I8
sS'3300008324'
p2954
I1
sS'3300008327'
p2955
I6
sS'3300008326'
p2956
I73
sS'7000000678'
p2957
I6
sS'7000000679'
p2958
I4
sS'7000000670'
p2959
I151
sS'3300001073'
p2960
I4
sS'7000000672'
p2961
I4
sS'7000000673'
p2962
I50
sS'3300001076'
p2963
I1
sS'3300001077'
p2964
I103
sS'3300001074'
p2965
I2
sS'3300001075'
p2966
I5
sS'3300004938'
p2967
I55
sS'3300000298'
p2968
I69
sS'3300004248'
p2969
I13
sS'3300004249'
p2970
I30
sS'3300004930'
p2971
I108
sS'3300004931'
p2972
I44
sS'3300004932'
p2973
I58
sS'3300004933'
p2974
I34
sS'3300004934'
p2975
I54
sS'3300004247'
p2976
I32
sS'3300004936'
p2977
I85
sS'3300004937'
p2978
I60
sS'3300002150'
p2979
I68
sS'3300007919'
p2980
I20
sS'3300007918'
p2981
I216
sS'3300007917'
p2982
I127
sS'3300007916'
p2983
I3
sS'3300007915'
p2984
I17
sS'3300007913'
p2985
I1
sS'3300007912'
p2986
I4
sS'3300007911'
p2987
I6
sS'3300007910'
p2988
I198
sS'3300006060'
p2989
I1
sS'3300006061'
p2990
I22
sS'3300002035'
p2991
I226
sS'3300006064'
p2992
I30
sS'2156126002'
p2993
I266
sS'2156126001'
p2994
I84
sS'2156126000'
p2995
I63
sS'3300006068'
p2996
I16
sS'3300006069'
p2997
I143
sS'3300002039'
p2998
I304
sS'2156126008'
p2999
I1
sS'3300005564'
p3000
I1538
sS'3300005565'
p3001
I44
sS'3300005566'
p3002
I291
sS'3300005567'
p3003
I62
sS'3300005560'
p3004
I816
sS'3300005561'
p3005
I947
sS'3300005562'
p3006
I389
sS'3300005563'
p3007
I1848
sS'3300005568'
p3008
I712
sS'3300005569'
p3009
I729
sS'3300003746'
p3010
I62
sS'3300003747'
p3011
I24
sS'3300003745'
p3012
I4
sS'3300003741'
p3013
I1
sS'7000000012'
p3014
I57
sS'3300003748'
p3015
I2
sS'3300003749'
p3016
I4
sS'3300002299'
p3017
I3
sS'3300002298'
p3018
I4
sS'3300002293'
p3019
I21
sS'7000000014'
p3020
I35
sS'3300002297'
p3021
I6
sS'3300002296'
p3022
I8
sS'3300002295'
p3023
I4
sS'3300002294'
p3024
I5
sS'7000000016'
p3025
I71
sS'7000000017'
p3026
I13
sS'3300006065'
p3027
I107
sS'3300008134'
p3028
I109
sS'3300008135'
p3029
I165
sS'3300008136'
p3030
I226
sS'3300008137'
p3031
I1
sS'3300008130'
p3032
I91
sS'3300008131'
p3033
I94
sS'3300008132'
p3034
I114
sS'3300008133'
p3035
I122
sS'3300008138'
p3036
I125
sS'3300008139'
p3037
I193
sS'2088090005'
p3038
I55
sS'2088090004'
p3039
I74
sS'2088090007'
p3040
I52
sS'2088090006'
p3041
I20
sS'2088090001'
p3042
I5
sS'2088090000'
p3043
I217
sS'2088090003'
p3044
I8
sS'2088090002'
p3045
I4
sS'2088090009'
p3046
I74
sS'2088090008'
p3047
I63
sS'3300005748'
p3048
I11
sS'3300005749'
p3049
I30
sS'3300005744'
p3050
I20
sS'3300005745'
p3051
I125
sS'3300005746'
p3052
I12
sS'3300005747'
p3053
I106
sS'7000000286'
p3054
I98
sS'3300001717'
p3055
I23
sS'3300001716'
p3056
I31
sS'3300001715'
p3057
I34
sS'3300001714'
p3058
I25
sS'3300001713'
p3059
I44
sS'3300001712'
p3060
I7
sS'3300001711'
p3061
I4
sS'3300001710'
p3062
I6
sS'3300001249'
p3063
I1
sS'3300001248'
p3064
I2
sS'3300001719'
p3065
I17
sS'3300001718'
p3066
I18
sS'3300008441'
p3067
I5
sS'3300008442'
p3068
I1
sS'3300008443'
p3069
I2
sS'3300008444'
p3070
I3
sS'3300008445'
p3071
I3
sS'3300008446'
p3072
I3
sS'3300008915'
p3073
I3
sS'3300009131'
p3074
I2627
sS'3300007400'
p3075
I1
sS'3300009130'
p3076
I328
sS'3300004747'
p3077
I7
sS'3300004030'
p3078
I465
sS'3300004745'
p3079
I20
sS'3300004744'
p3080
I17
sS'3300004743'
p3081
I15
sS'3300004742'
p3082
I25
sS'3300000042'
p3083
I19
sS'3300000591'
p3084
I41
sS'3300002376'
p3085
I47
sS'3300004749'
p3086
I11
sS'3300004748'
p3087
I14
sS'3300007214'
p3088
I259
sS'3300007215'
p3089
I5
sS'3300007216'
p3090
I568
sS'3300002377'
p3091
I228
sS'3300007210'
p3092
I68
sS'3300007212'
p3093
I253
sS'3300007213'
p3094
I25
sS'3300002370'
p3095
I6
sS'3300007218'
p3096
I22
sS'3300006304'
p3097
I94
sS'3300002372'
p3098
I1
sS'3300002373'
p3099
I4
sS'2236876022'
p3100
I3
sS'2236876023'
p3101
I83
sS'2236876020'
p3102
I41
sS'2236876021'
p3103
I40
sS'2236876024'
p3104
I15
sS'2236876025'
p3105
I320
sS'3300003247'
p3106
I47
sS'3300007854'
p3107
I25
sS'3300002190'
p3108
I9
sS'3300002192'
p3109
I15
sS'3300002193'
p3110
I16
sS'3300002194'
p3111
I45
sS'3300002196'
p3112
I22
sS'3300007078'
p3113
I24
sS'3300007079'
p3114
I42
sS'3300007070'
p3115
I38
sS'3300007071'
p3116
I58
sS'3300007072'
p3117
I300
sS'3300007073'
p3118
I2
sS'3300007074'
p3119
I42
sS'3300007075'
p3120
I19
sS'3300007076'
p3121
I1310
sS'3300006309'
p3122
I88
sS'3300006308'
p3123
I530
sS'3300002378'
p3124
I203
sS'3300002379'
p3125
I4
sS'3300002374'
p3126
I10
sS'3300002375'
p3127
I5
sS'3300006303'
p3128
I96
sS'3300006302'
p3129
I25
sS'3300006305'
p3130
I71
sS'3300002371'
p3131
I10
sS'3300006307'
p3132
I126
sS'3300006306'
p3133
I229
sS'3300005977'
p3134
I10
sS'3300005976'
p3135
I19
sS'3300005975'
p3136
I9
sS'3300005974'
p3137
I11
sS'3300005973'
p3138
I9
sS'3300005971'
p3139
I233
sS'3300005970'
p3140
I6
sS'2007309001'
p3141
I15
sS'2007309000'
p3142
I7
sS'3300005979'
p3143
I5
sS'3300005978'
p3144
I15
sS'2140918014'
p3145
I61
sS'2140918017'
p3146
I11
sS'2140918012'
p3147
I7
sS'2140918013'
p3148
I135
sS'3300001783'
p3149
I180
sS'3300008835'
p3150
I3
sS'3300008834'
p3151
I4
sS'3300008831'
p3152
I11
sS'3300008830'
p3153
I7
sS'3300008832'
p3154
I69
sS'2228664008'
p3155
I5
sS'2228664009'
p3156
I17
sS'3300005351'
p3157
I14
sS'3300005350'
p3158
I3
sS'3300005356'
p3159
I1512
sS'3300005355'
p3160
I1344
sS'3300005354'
p3161
I1304
sS'2228664000'
p3162
I102
sS'3300005359'
p3163
I3
sS'2228664004'
p3164
I1
sS'3300008049'
p3165
I12
sS'3300008047'
p3166
I3
sS'3300000457'
p3167
I4
sS'3300000456'
p3168
I1
sS'3300000455'
p3169
I4
sS'3300008303'
p3170
I1
sS'3300008302'
p3171
I26
sS'3300008301'
p3172
I22
sS'3300008300'
p3173
I39
sS'3300008307'
p3174
I36
sS'3300008306'
p3175
I52
sS'3300008305'
p3176
I21
sS'3300008304'
p3177
I94
sS'3300008309'
p3178
I4
sS'3300008308'
p3179
I1
sS'7000000479'
p3180
I65
sS'7000000476'
p3181
I5
sS'3300007640'
p3182
I39
sS'7000000474'
p3183
I6
sS'7000000475'
p3184
I96
sS'7000000472'
p3185
I71
sS'7000000473'
p3186
I2
sS'7000000471'
p3187
I100
sS'3300004489'
p3188
I7
sS'3300004480'
p3189
I1381
sS'3300004481'
p3190
I2398
sS'3300004482'
p3191
I1
sS'3300004483'
p3192
I1
sS'3300004484'
p3193
I8
sS'3300004485'
p3194
I1
sS'3300004486'
p3195
I3
sS'3300004487'
p3196
I1
sS'7000000692'
p3197
I111
sS'7000000693'
p3198
I79
sS'7000000690'
p3199
I40
sS'7000000691'
p3200
I2
sS'3300001058'
p3201
I22
sS'7000000694'
p3202
I1
sS'7000000695'
p3203
I37
sS'3300001054'
p3204
I6
sS'7000000698'
p3205
I94
sS'3300001051'
p3206
I9
sS'2061766006'
p3207
I8
sS'3300000900'
p3208
I18
sS'2061766005'
p3209
I8
sS'3300004268'
p3210
I165
sS'3300004269'
p3211
I3
sS'2061766000'
p3212
I56
sS'3300000906'
p3213
I39
sS'3300000909'
p3214
I9
sS'3300000908'
p3215
I2
sS'3300004266'
p3216
I237
sS'3300004267'
p3217
I108
sS'3300004260'
p3218
I94
sS'3300004261'
p3219
I31
sS'3300004263'
p3220
I1
sS'3300003904'
p3221
I2
sS'3300003905'
p3222
I5
sS'3300003906'
p3223
I6
sS'3300003907'
p3224
I18
sS'3300003900'
p3225
I11
sS'3300003901'
p3226
I17
sS'3300003902'
p3227
I26
sS'3300003903'
p3228
I21
sS'3300003908'
p3229
I78
sS'3300003909'
p3230
I33
sS'3300005570'
p3231
I2
sS'3300006200'
p3232
I1
sS'3300006753'
p3233
I34
sS'3300006203'
p3234
I72
sS'3300003768'
p3235
I22
sS'3300003769'
p3236
I6
sS'3300003760'
p3237
I33
sS'3300003761'
p3238
I44
sS'3300003762'
p3239
I53
sS'3300003763'
p3240
I47
sS'3300003764'
p3241
I33
sS'3300003765'
p3242
I23
sS'3300003766'
p3243
I5
sS'3300003767'
p3244
I50
sS'3300007333'
p3245
I18
sS'3300007332'
p3246
I14
sS'3300007331'
p3247
I10
sS'3300005353'
p3248
I1239
sS'3300007330'
p3249
I48
sS'3300005352'
p3250
I21
sS'3300007337'
p3251
I15
sS'3300003303'
p3252
I1
sS'3300007335'
p3253
I133
sS'3300007334'
p3254
I28
sS'3300002403'
p3255
I17
sS'3300004417'
p3256
I35
sS'3300004416'
p3257
I39
sS'3300004415'
p3258
I52
sS'3300004414'
p3259
I41
sS'3300005508'
p3260
I167
sS'3300005509'
p3261
I200
sS'3300005506'
p3262
I80
sS'3300005507'
p3263
I25
sS'3300005504'
p3264
I104
sS'3300005505'
p3265
I142
sS'3300005502'
p3266
I26
sS'3300005503'
p3267
I28
sS'3300005500'
p3268
I18
sS'3300005501'
p3269
I12
sS'3300004411'
p3270
I19
sS'3300008158'
p3271
I5
sS'3300008159'
p3272
I163
sS'3300008156'
p3273
I5
sS'3300008157'
p3274
I2
sS'3300008154'
p3275
I139
sS'3300004410'
p3276
I37
sS'3300008152'
p3277
I245
sS'3300008153'
p3278
I112
sS'3300008150'
p3279
I250
sS'3300008151'
p3280
I14
sS'7000000136'
p3281
I9
sS'3300002411'
p3282
I1
sS'3300002410'
p3283
I3
sS'3300002413'
p3284
I2
sS'3300002412'
p3285
I3
sS'2088090023'
p3286
I29
sS'2088090022'
p3287
I53
sS'2088090021'
p3288
I35
sS'2088090020'
p3289
I14
sS'7000000132'
p3290
I131
sS'3300007497'
p3291
I52
sS'3300001933'
p3292
I1
sS'3300007494'
p3293
I6
sS'3300001269'
p3294
I434
sS'3300001268'
p3295
I3
sS'3300001263'
p3296
I175
sS'3300001262'
p3297
I415
sS'3300001261'
p3298
I4
sS'3300001260'
p3299
I8
sS'3300001267'
p3300
I1
sS'3300001266'
p3301
I7
sS'3300001265'
p3302
I166
sS'3300001264'
p3303
I406
sS'3300007490'
p3304
I8
sS'3300007491'
p3305
I7
sS'3300004361'
p3306
I46
sS'3300004362'
p3307
I37
sS'3300001199'
p3308
I390
sS'3300004367'
p3309
I63
sS'3300001195'
p3310
I6
sS'3300001197'
p3311
I64
sS'3300004366'
p3312
I66
sS'3300001191'
p3313
I11
sS'3300001190'
p3314
I6
sS'3300001192'
p3315
I14
sS'3300001991'
p3316
I116
sS'3300001990'
p3317
I241
sS'3300004019'
p3318
I250
sS'3300004018'
p3319
I294
sS'3300004013'
p3320
I288
sS'3300004012'
p3321
I268
sS'3300004011'
p3322
I242
sS'3300004010'
p3323
I315
sS'3300004016'
p3324
I157
sS'3300004015'
p3325
I225
sS'3300004014'
p3326
I355
sS'3300007540'
p3327
I1
sS'3300007541'
p3328
I16
sS'7000000527'
p3329
I56
sS'3300007542'
p3330
I7
sS'3300007543'
p3331
I82
sS'3300005880'
p3332
I37
sS'3300007545'
p3333
I303
sS'3300007546'
p3334
I375
sS'3300007547'
p3335
I294
sS'2022004001'
p3336
I26
sS'3300007548'
p3337
I257
sS'3300005904'
p3338
I96
sS'3300000711'
p3339
I5
sS'3300000242'
p3340
I193
sS'3300000715'
p3341
I4
sS'3300000717'
p3342
I5
sS'2236876008'
p3343
I62
sS'2236876009'
p3344
I15
sS'2236876004'
p3345
I40
sS'2236876005'
p3346
I16
sS'2236876006'
p3347
I3
sS'2236876007'
p3348
I69
sS'2236876001'
p3349
I15
sS'2236876002'
p3350
I7
sS'2236876003'
p3351
I6
sS'3300003228'
p3352
I2
sS'3300007278'
p3353
I16
sS'3300007279'
p3354
I7
sS'3300007276'
p3355
I32
sS'3300003224'
p3356
I20
sS'3300007274'
p3357
I39
sS'3300007272'
p3358
I58
sS'3300003220'
p3359
I54
sS'3300003223'
p3360
I18
sS'3300007271'
p3361
I46
sS'3300002172'
p3362
I229
sS'3300002173'
p3363
I239
sS'3300002170'
p3364
I207
sS'3300002171'
p3365
I191
sS'3300002176'
p3366
I188
sS'3300002177'
p3367
I127
sS'3300002174'
p3368
I360
sS'3300002175'
p3369
I536
sS'3300002178'
p3370
I131
sS'3300002179'
p3371
I280
sS'2225789007'
p3372
I10
sS'2225789004'
p3373
I420
sS'3300007092'
p3374
I14
sS'3300003596'
p3375
I86
sS'3300003595'
p3376
I106
sS'3300003594'
p3377
I32
sS'3300003593'
p3378
I24
sS'3300003592'
p3379
I130
sS'3300003591'
p3380
I53
sS'3300003590'
p3381
I24
sS'3300007098'
p3382
I42
sS'3300007099'
p3383
I9
sS'3300003599'
p3384
I42
sS'3300003598'
p3385
I46
sS'3300006323'
p3386
I178
sS'3300006322'
p3387
I112
sS'3300006321'
p3388
I71
sS'3300006320'
p3389
I82
sS'3300006327'
p3390
I252
sS'3300006326'
p3391
I220
sS'3300006325'
p3392
I144
sS'3300006324'
p3393
I212
sS'3300006329'
p3394
I67
sS'3300006328'
p3395
I41
sS'3300007898'
p3396
I1
sS'3300007899'
p3397
I4
sS'3300007896'
p3398
I221
sS'3300007897'
p3399
I59
sS'3300007894'
p3400
I1
sS'3300007895'
p3401
I3
sS'3300009142'
p3402
I175
sS'3300009143'
p3403
I860
sS'3300009140'
p3404
I101
sS'3300009141'
p3405
I156
sS'3300009146'
p3406
I1001
sS'3300009147'
p3407
I2898
sS'3300009144'
p3408
I66
sS'3300009145'
p3409
I343
sS'3300009149'
p3410
I618
sS'3300005335'
p3411
I932
sS'3300005334'
p3412
I1254
sS'3300005337'
p3413
I1499
sS'3300005336'
p3414
I1284
sS'3300005331'
p3415
I1263
sS'3300005330'
p3416
I923
sS'3300005333'
p3417
I501
sS'3300005332'
p3418
I6421
sS'3300005339'
p3419
I1329
sS'3300005338'
p3420
I1552
sS'2149837000'
p3421
I4
sS'3300008364'
p3422
I92
sS'3300008361'
p3423
I66
sS'3300008360'
p3424
I88
sS'3300008363'
p3425
I78
sS'3300008362'
p3426
I68
sS'7000000323'
p3427
I7
sS'7000000320'
p3428
I81
sS'7000000321'
p3429
I36
sS'7000000326'
p3430
I51
sS'7000000327'
p3431
I9
sS'7000000324'
p3432
I49
sS'7000000325'
p3433
I1
sS'7000000458'
p3434
I9
sS'7000000459'
p3435
I11
sS'7000000328'
p3436
I3
sS'7000000329'
p3437
I74
sS'3300004463'
p3438
I3949
sS'3300004460'
p3439
I6
sS'3300004461'
p3440
I6
sS'3300004466'
p3441
I14
sS'3300004467'
p3442
I12
sS'3300004464'
p3443
I3
sS'3300004465'
p3444
I6
sS'3300006994'
p3445
I13
sS'3300004468'
p3446
I23
sS'3300004469'
p3447
I19
sS'3300001036'
p3448
I2
sS'3300001037'
p3449
I29
sS'3300001526'
p3450
I21
sS'3300001527'
p3451
I18
sS'3300001523'
p3452
I18
sS'3300004206'
p3453
I71
sS'3300004207'
p3454
I48
sS'3300004204'
p3455
I38
sS'3300004205'
p3456
I55
sS'3300004202'
p3457
I53
sS'3300004203'
p3458
I35
sS'3300004200'
p3459
I41
sS'3300004201'
p3460
I62
sS'3300004208'
p3461
I476
sS'3300004209'
p3462
I416
sS'3300003968'
p3463
I33
sS'3300003969'
p3464
I55
sS'3300003966'
p3465
I54
sS'3300003967'
p3466
I35
sS'3300003964'
p3467
I34
sS'3300003965'
p3468
I38
sS'3300003962'
p3469
I22
sS'3300003963'
p3470
I21
sS'3300003960'
p3471
I31
sS'3300003961'
p3472
I21
sS'2044078003'
p3473
I2
sS'2044078002'
p3474
I4
sS'2044078001'
p3475
I1
sS'2044078000'
p3476
I9
sS'2044078007'
p3477
I32
sS'2044078006'
p3478
I18
sS'2044078005'
p3479
I1
sS'2044078004'
p3480
I1
sS'2199034001'
p3481
I31
sS'2044078009'
p3482
I5
sS'2044078008'
p3483
I27
sS'3300000929'
p3484
I244
sS'3300000928'
p3485
I263
sS'3300000923'
p3486
I9
sS'3300000922'
p3487
I9
sS'3300000921'
p3488
I5
sS'3300000920'
p3489
I43
sS'3300000927'
p3490
I38
sS'3300000926'
p3491
I8
sS'3300000925'
p3492
I21
sS'3300000924'
p3493
I8
sS'2013515002'
p3494
I8
sS'3300003782'
p3495
I36
sS'3300003783'
p3496
I12
sS'3300003780'
p3497
I23
sS'3300003781'
p3498
I164
sS'3300003786'
p3499
I16
sS'3300003787'
p3500
I6
sS'3300003784'
p3501
I93
sS'3300003785'
p3502
I3
sS'3300003788'
p3503
I47
sS'3300003789'
p3504
I7
sS'2166559024'
p3505
I178
sS'2166559022'
p3506
I10
sS'2166559023'
p3507
I3
sS'2166559021'
p3508
I10
sS'3300002780'
p3509
I23
sS'3300006631'
p3510
I8
sS'3300006630'
p3511
I19
sS'3300006633'
p3512
I8
sS'3300005832'
p3513
I2400
sS'3300005521'
p3514
I192
sS'3300005522'
p3515
I398
sS'3300006144'
p3516
I66
sS'3300005524'
p3517
I600
sS'3300005525'
p3518
I574
sS'3300005834'
p3519
I649
sS'3300005835'
p3520
I65
sS'3300005528'
p3521
I623
sS'3300006635'
p3522
I25
sS'3300005838'
p3523
I318
sS'3300005839'
p3524
I391
sS'3300006142'
p3525
I68
sS'3300008170'
p3526
I6
sS'3300008171'
p3527
I13
sS'3300008173'
p3528
I2
sS'3300006637'
p3529
I150
sS'3300008176'
p3530
I11
sS'3300008177'
p3531
I6
sS'3300008178'
p3532
I11
sS'3300008179'
p3533
I23
sS'3300006636'
p3534
I209
sS'2199352018'
p3535
I23
sS'2199352012'
p3536
I252
sS'2199352010'
p3537
I23
sS'3300007724'
p3538
I46
sS'3300007725'
p3539
I215
sS'3300005784'
p3540
I71
sS'3300005785'
p3541
I67
sS'3300005786'
p3542
I33
sS'3300005782'
p3543
I828
sS'3300005783'
p3544
I118
sS'3300005788'
p3545
I7
sS'3300005789'
p3546
I25
sS'2010170003'
p3547
I28
sS'2010170002'
p3548
I34
sS'2010170001'
p3549
I8
sS'3300001205'
p3550
I36
sS'3300001204'
p3551
I1
sS'3300007444'
p3552
I6
sS'3300001201'
p3553
I267
sS'3300001200'
p3554
I144
sS'3300001203'
p3555
I180
sS'3300001202'
p3556
I265
sS'3300004005'
p3557
I379
sS'3300000586'
p3558
I8
sS'7000000696'
p3559
I50
sS'3300004001'
p3560
I397
sS'3300004002'
p3561
I334
sS'3300000582'
p3562
I4
sS'3300000589'
p3563
I7
sS'7000000159'
p3564
I59
sS'7000000158'
p3565
I84
sS'2061766007'
p3566
I1741
sS'7000000150'
p3567
I35
sS'7000000152'
p3568
I11
sS'7000000155'
p3569
I32
sS'7000000157'
p3570
I8
sS'7000000156'
p3571
I98
sS'3300000902'
p3572
I2
sS'3300000905'
p3573
I1
sS'2061766003'
p3574
I80
sS'3300000553'
p3575
I340
sS'3300000550'
p3576
I324
sS'3300004079'
p3577
I256
sS'3300004078'
p3578
I306
sS'3300004075'
p3579
I165
sS'3300004074'
p3580
I167
sS'3300004077'
p3581
I204
sS'3300004076'
p3582
I198
sS'3300004071'
p3583
I182
sS'3300004070'
p3584
I203
sS'3300004073'
p3585
I245
sS'3300004072'
p3586
I177
sS'3300004264'
p3587
I6
sS'3300004265'
p3588
I227
sS'3300005844'
p3589
I1707
sS'3300002821'
p3590
I425
sS'3300004699'
p3591
I3
sS'3300004698'
p3592
I1
sS'3300004691'
p3593
I11
sS'3300004690'
p3594
I16
sS'3300004693'
p3595
I101
sS'3300004692'
p3596
I48
sS'3300004694'
p3597
I21
sS'3300004697'
p3598
I5
sS'3300007250'
p3599
I54
sS'3300007251'
p3600
I1
sS'3300007252'
p3601
I18
sS'3300007253'
p3602
I65
sS'3300003203'
p3603
I207
sS'3300007255'
p3604
I611
sS'3300007256'
p3605
I8
sS'3300007525'
p3606
I73
sS'3300007258'
p3607
I598
sS'3300007259'
p3608
I12
sS'3300007529'
p3609
I1
sS'3300006121'
p3610
I45
sS'3300006120'
p3611
I78
sS'3300006691'
p3612
I11
sS'3300006690'
p3613
I7
sS'3300006125'
p3614
I84
sS'3300006124'
p3615
I54
sS'3300006695'
p3616
I20
sS'3300006126'
p3617
I63
sS'3300006129'
p3618
I67
sS'3300006128'
p3619
I60
sS'3300006699'
p3620
I10
sS'3300006698'
p3621
I11
sS'3300002158'
p3622
I33
sS'3300002159'
p3623
I101
sS'3300005725'
p3624
I14
sS'3300007681'
p3625
I207
sS'3300006345'
p3626
I65
sS'3300006344'
p3627
I142
sS'3300006347'
p3628
I292
sS'3300006346'
p3629
I249
sS'3300006341'
p3630
I554
sS'3300006340'
p3631
I524
sS'3300006343'
p3632
I50
sS'3300006342'
p3633
I5
sS'3300006349'
p3634
I32
sS'3300006348'
p3635
I38
sS'2013843001'
p3636
I7
sS'2013843003'
p3637
I7
sS'2013843002'
p3638
I31
sS'2022920016'
p3639
I23
sS'2022920017'
p3640
I5
sS'2022920012'
p3641
I18
sS'2022920013'
p3642
I12
sS'2022920010'
p3643
I9
sS'2022920011'
p3644
I8
sS'2022920018'
p3645
I13
sS'2022920019'
p3646
I35
sS'3300008543'
p3647
I6
sS'3300000918'
p3648
I25
sS'3300002692'
p3649
I9
sS'3300002848'
p3650
I2
sS'3300002849'
p3651
I6
sS'3300002840'
p3652
I508
sS'3300002846'
p3653
I1
sS'3300002847'
p3654
I3
sS'3300005649'
p3655
I25
sS'3300005648'
p3656
I8
sS'3300005319'
p3657
I13
sS'3300005318'
p3658
I30
sS'3300005317'
p3659
I9
sS'3300005640'
p3660
I127
sS'3300005643'
p3661
I179
sS'3300005642'
p3662
I216
sS'3300005645'
p3663
I394
sS'3300005644'
p3664
I57
sS'3300005647'
p3665
I46
sS'3300005646'
p3666
I105
sS'3300009091'
p3667
I5480
sS'2008193001'
p3668
I15
sS'2008193000'
p3669
I6
sS'3300008695'
p3670
I99
sS'3300008691'
p3671
I1
sS'3300008692'
p3672
I104
sS'3300008349'
p3673
I11
sS'3300008348'
p3674
I11
sS'3300008347'
p3675
I104
sS'3300008346'
p3676
I91
sS'3300008345'
p3677
I39
sS'3300008432'
p3678
I1
sS'3300008343'
p3679
I3
sS'3300008342'
p3680
I3
sS'3300008341'
p3681
I54
sS'3300008340'
p3682
I141
sS'7000000304'
p3683
I88
sS'7000000305'
p3684
I67
sS'7000000306'
p3685
I28
sS'7000000307'
p3686
I19
sS'7000000300'
p3687
I54
sS'7000000301'
p3688
I53
sS'7000000302'
p3689
I112
sS'7000000308'
p3690
I78
sS'7000000309'
p3691
I70
sS'3300004444'
p3692
I111
sS'3300004197'
p3693
I33
sS'3300004446'
p3694
I148
sS'3300004195'
p3695
I15
sS'3300004192'
p3696
I57
sS'3300004441'
p3697
I71
sS'3300004190'
p3698
I27
sS'3300004191'
p3699
I40
sS'3300004448'
p3700
I6
sS'3300004449'
p3701
I39
sS'3300004198'
p3702
I30
sS'3300004199'
p3703
I24
sS'3300000816'
p3704
I61
sS'3300001548'
p3705
I2
sS'3300001546'
p3706
I122
sS'3300001547'
p3707
I108
sS'3300001544'
p3708
I311
sS'3300001545'
p3709
I108
sS'3300001016'
p3710
I4
sS'3300001541'
p3711
I4
sS'2035918002'
p3712
I1
sS'2035918003'
p3713
I19
sS'2035918000'
p3714
I36
sS'2035918001'
p3715
I1
sS'2035918006'
p3716
I25
sS'2035918007'
p3717
I84
sS'2035918004'
p3718
I34
sS'2035918005'
p3719
I28
sS'3300000815'
p3720
I51
sS'3300003942'
p3721
I2
sS'3300003943'
p3722
I2
sS'3300003944'
p3723
I14
sS'3300003945'
p3724
I7
sS'3300004386'
p3725
I79
sS'3300008247'
p3726
I8
sS'3300007207'
p3727
I7
sS'3300008241'
p3728
I3
sS'3300004228'
p3729
I10
sS'3300004229'
p3730
I51
sS'3300000949'
p3731
I232
sS'3300000948'
p3732
I324
sS'3300004998'
p3733
I71
sS'3300004999'
p3734
I56
sS'3300004996'
p3735
I63
sS'3300004997'
p3736
I68
sS'3300004994'
p3737
I63
sS'3300004995'
p3738
I57
sS'3300004992'
p3739
I79
sS'3300004225'
p3740
I18
sS'3300004990'
p3741
I73
sS'3300004991'
p3742
I53
sS'3300003412'
p3743
I155
sS'3300003413'
p3744
I133
sS'3300003410'
p3745
I141
sS'3300003411'
p3746
I244
sS'3300003416'
p3747
I5
sS'3300003417'
p3748
I12
sS'3300003415'
p3749
I28
sS'3300007751'
p3750
I8
sS'3300007750'
p3751
I7
sS'3300003418'
p3752
I103
sS'3300007752'
p3753
I1
sS'3300007755'
p3754
I65
sS'3300007754'
p3755
I40
sS'3300007757'
p3756
I215
sS'3300007756'
p3757
I123
sS'3300006590'
p3758
I56
sS'3300006591'
p3759
I65
sS'3300006592'
p3760
I87
sS'3300006593'
p3761
I86
sS'3300006594'
p3762
I71
sS'3300006595'
p3763
I68
sS'3300006596'
p3764
I100
sS'3300006597'
p3765
I106
sS'3300006598'
p3766
I105
sS'3300006599'
p3767
I87
sS'3300002037'
p3768
I196
sS'2222084011'
p3769
I2
sS'2222084010'
p3770
I9
sS'7000000008'
p3771
I20
sS'7000000007'
p3772
I104
sS'7000000006'
p3773
I64
sS'7000000005'
p3774
I143
sS'7000000556'
p3775
I87
sS'3300002154'
p3776
I47
sS'7000000003'
p3777
I7
sS'7000000002'
p3778
I11
sS'2166559001'
p3779
I8
sS'2166559002'
p3780
I6
sS'2166559003'
p3781
I3
sS'2166559005'
p3782
I72
sS'2166559006'
p3783
I45
sS'2166559007'
p3784
I12
sS'2166559008'
p3785
I17
sS'2166559009'
p3786
I11
sS'3300001790'
p3787
I36
sS'3300002155'
p3788
I86
sS'2053563014'
p3789
I40
sS'3300007532'
p3790
I118
sS'3300005814'
p3791
I7
sS'3300005815'
p3792
I15
sS'3300005816'
p3793
I50
sS'3300005817'
p3794
I19
sS'3300005813'
p3795
I11
sS'3300005818'
p3796
I83
sS'3300005819'
p3797
I24
sS'3300002450'
p3798
I334
sS'2199352035'
p3799
I28
sS'2199352036'
p3800
I19
sS'3300002459'
p3801
I118
sS'2199352031'
p3802
I13
sS'2199352032'
p3803
I17
sS'2199352033'
p3804
I38
sS'2043231000'
p3805
I13
sS'2043231003'
p3806
I12
sS'2043231002'
p3807
I9
sS'2043231004'
p3808
I9
sS'2043231006'
p3809
I1
sS'3300001225'
p3810
I2
sS'3300001229'
p3811
I10
sS'3300001228'
p3812
I4
sS'3300002153'
p3813
I127
sS'3300007535'
p3814
I508
sS'3300007069'
p3815
I15
sS'3300003587'
p3816
I83
sS'3300003588'
p3817
I121
sS'3300005108'
p3818
I9
sS'3300005109'
p3819
I10
sS'3300003589'
p3820
I105
sS'3300005102'
p3821
I113
sS'3300005103'
p3822
I12
sS'3300005100'
p3823
I132
sS'3300005101'
p3824
I209
sS'3300005106'
p3825
I1
sS'3300005107'
p3826
I23
sS'3300005104'
p3827
I26
sS'3300005105'
p3828
I27
sS'3300001951'
p3829
I25
sS'3300001950'
p3830
I4
sS'3300001953'
p3831
I79
sS'3300001952'
p3832
I98
sS'3300001955'
p3833
I70
sS'3300001954'
p3834
I56
sS'3300001957'
p3835
I89
sS'3300001956'
p3836
I63
sS'3300001959'
p3837
I74
sS'3300001958'
p3838
I84
sS'7000000178'
p3839
I41
sS'3300006338'
p3840
I632
sS'3300006339'
p3841
I971
sS'3300004057'
p3842
I229
sS'3300004056'
p3843
I297
sS'3300004055'
p3844
I359
sS'3300004054'
p3845
I170
sS'3300004052'
p3846
I256
sS'3300004051'
p3847
I195
sS'3300004050'
p3848
I276
sS'3300000579'
p3849
I24
sS'3300004058'
p3850
I107
sS'3300002369'
p3851
I2
sS'3300000689'
p3852
I1
sS'3300000687'
p3853
I2
sS'3300000684'
p3854
I1
sS'3300000685'
p3855
I1
sS'3300000682'
p3856
I1
sS'3300000681'
p3857
I1
sS'3300002776'
p3858
I14
sS'3300004524'
p3859
I8
sS'3300003885'
p3860
I827
sS'3300003884'
p3861
I9
sS'3300003887'
p3862
I115
sS'3300003886'
p3863
I1096
sS'3300003881'
p3864
I148
sS'3300003880'
p3865
I147
sS'3300003883'
p3866
I191
sS'3300003882'
p3867
I106
sS'3300003889'
p3868
I208
sS'3300003888'
p3869
I171
sS'3300003089'
p3870
I5
sS'3300003088'
p3871
I1
sS'3300003085'
p3872
I2
sS'3300003087'
p3873
I4
sS'3300003081'
p3874
I1
sS'3300003083'
p3875
I2
sS'3300003082'
p3876
I5
sS'2124908028'
p3877
I118
sS'2124908029'
p3878
I12
sS'2124908023'
p3879
I20
sS'2124908021'
p3880
I7
sS'2124908027'
p3881
I20
sS'2124908025'
p3882
I3
sS'3300006109'
p3883
I68
sS'3300006108'
p3884
I80
sS'3300002138'
p3885
I34
sS'3300002139'
p3886
I62
sS'3300006103'
p3887
I82
sS'3300002137'
p3888
I48
sS'3300002134'
p3889
I46
sS'3300002135'
p3890
I38
sS'3300002132'
p3891
I47
sS'3300002133'
p3892
I43
sS'3300006105'
p3893
I66
sS'3300002131'
p3894
I18
sS'3300005489'
p3895
I14
sS'3300005488'
p3896
I48
sS'3300005487'
p3897
I47
sS'3300005486'
p3898
I10
sS'3300005485'
p3899
I31
sS'3300005484'
p3900
I8
sS'3300005483'
p3901
I2
sS'3300005482'
p3902
I2
sS'3300005481'
p3903
I51
sS'3300005480'
p3904
I4
sS'3300003628'
p3905
I2
sS'3300003511'
p3906
I22
sS'3300003621'
p3907
I104
sS'3300003620'
p3908
I168
sS'3300002682'
p3909
I1
sS'3300002683'
p3910
I1
sS'3300002684'
p3911
I3
sS'3300002685'
p3912
I5
sS'3300002686'
p3913
I3
sS'3300002687'
p3914
I3
sS'3300002688'
p3915
I3
sS'3300002689'
p3916
I6
sS'3300006365'
p3917
I29
sS'3300002867'
p3918
I3
sS'3300006363'
p3919
I16
sS'3300002861'
p3920
I1
sS'3300002862'
p3921
I3
sS'3300006360'
p3922
I56
sS'3300005663'
p3923
I211
sS'3300005662'
p3924
I1152
sS'3300005661'
p3925
I57
sS'3300005660'
p3926
I716
sS'3300005667'
p3927
I20
sS'3300005666'
p3928
I31
sS'3300005665'
p3929
I83
sS'3300005664'
p3930
I1
sS'3300005669'
p3931
I1
sS'3300006810'
p3932
I148
sS'3300008413'
p3933
I31
sS'3300008412'
p3934
I127
sS'3300008410'
p3935
I78
sS'3300008417'
p3936
I143
sS'3300008416'
p3937
I245
sS'3300008415'
p3938
I43
sS'3300008414'
p3939
I12
sS'3300008419'
p3940
I3
sS'3300008418'
p3941
I59
sS'7000000368'
p3942
I1
sS'7000000369'
p3943
I45
sS'7000000366'
p3944
I58
sS'7000000367'
p3945
I66
sS'7000000364'
p3946
I93
sS'7000000363'
p3947
I26
sS'7000000360'
p3948
I13
sS'3300001565'
p3949
I9
sS'3300001566'
p3950
I3
sS'3300001567'
p3951
I725
sS'3300001568'
p3952
I12
sS'3300001569'
p3953
I64
sS'3300007299'
p3954
I101
sS'7000000588'
p3955
I2
sS'7000000589'
p3956
I10
sS'7000000582'
p3957
I47
sS'7000000583'
p3958
I50
sS'7000000581'
p3959
I1
sS'7000000587'
p3960
I13
sS'7000000584'
p3961
I182
sS'7000000585'
p3962
I45
sS'3300007297'
p3963
I44
sS'3300004428'
p3964
I74
sS'3300004429'
p3965
I57
sS'3300004426'
p3966
I80
sS'3300004427'
p3967
I57
sS'3300004424'
p3968
I100
sS'3300004425'
p3969
I49
sS'3300004422'
p3970
I55
sS'3300004423'
p3971
I56
sS'3300004420'
p3972
I63
sS'3300004421'
p3973
I37
sS'3300007198'
p3974
I260
sS'3300007197'
p3975
I4
sS'3300007196'
p3976
I30
sS'3300007195'
p3977
I16
sS'3300007194'
p3978
I62
sS'3300007193'
p3979
I21
sS'3300007192'
p3980
I37
sS'3300007191'
p3981
I7
sS'3300007190'
p3982
I33
sS'3300000967'
p3983
I8
sS'3300000966'
p3984
I10
sS'3300000213'
p3985
I42
sS'3300000212'
p3986
I106
sS'3300000215'
p3987
I83
sS'3300000214'
p3988
I34
sS'3300000217'
p3989
I142
sS'3300000216'
p3990
I75
sS'3300000219'
p3991
I54
sS'3300000218'
p3992
I10
sS'3300000969'
p3993
I250
sS'3300000968'
p3994
I130
sS'3300007773'
p3995
I14
sS'3300007772'
p3996
I289
sS'3300007771'
p3997
I196
sS'3300007770'
p3998
I113
sS'3300003430'
p3999
I102
sS'3300003431'
p4000
I66
sS'3300003432'
p4001
I2216
sS'3300007774'
p4002
I5
sS'3300007779'
p4003
I9
sS'3300007778'
p4004
I222
sS'3300003438'
p4005
I15
sS'3300003439'
p4006
I8
sS'3300007999'
p4007
I360
sS'3300007998'
p4008
I15
sS'3300006740'
p4009
I1
sS'3300006743'
p4010
I61
sS'3300006742'
p4011
I51
sS'3300005553'
p4012
I652
sS'3300006745'
p4013
I58
sS'3300006744'
p4014
I112
sS'3300008155'
p4015
I180
sS'3300006746'
p4016
I69
sS'3300007346'
p4017
I14
sS'2013954001'
p4018
I6
sS'3300007344'
p4019
I17
sS'3300007613'
p4020
I12
sS'3300007342'
p4021
I4
sS'2006543006'
p4022
I57
sS'2006543007'
p4023
I7
sS'3300007615'
p4024
I7
sS'3300007340'
p4025
I13
sS'3300007341'
p4026
I12
sS'2228664019'
p4027
I6
sS'2228664018'
p4028
I13
sS'2088090024'
p4029
I58
sS'3300005878'
p4030
I45
sS'3300001433'
p4031
I6
sS'3300005876'
p4032
I63
sS'3300005877'
p4033
I32
sS'3300005874'
p4034
I72
sS'3300005875'
p4035
I60
sS'3300005872'
p4036
I5
sS'3300005873'
p4037
I52
sS'3300005871'
p4038
I8
sS'3300001923'
p4039
I2
sS'2228664011'
p4040
I11
sS'3300005329'
p4041
I1802
sS'3300002478'
p4042
I2
sS'3300002475'
p4043
I2
sS'3300002472'
p4044
I1
sS'3300001384'
p4045
I39
sS'3300001385'
p4046
I92
sS'3300000383'
p4047
I61
sS'3300000381'
p4048
I11
sS'3300005298'
p4049
I127
sS'3300000380'
p4050
I9
sS'3300000387'
p4051
I9
sS'3300005290'
p4052
I308
sS'3300005296'
p4053
I82
sS'3300005297'
p4054
I89
sS'3300005294'
p4055
I552
sS'3300004607'
p4056
I32
sS'3300004604'
p4057
I12
sS'3300000384'
p4058
I4
sS'3300000389'
p4059
I7
sS'3300000388'
p4060
I10
sS'3300005128'
p4061
I10
sS'3300005129'
p4062
I7
sS'2020350000'
p4063
I1
sS'3300005124'
p4064
I10
sS'3300005125'
p4065
I6
sS'3300005126'
p4066
I4
sS'3300005127'
p4067
I8
sS'3300005120'
p4068
I2
sS'3300005121'
p4069
I5
sS'3300005122'
p4070
I3
sS'3300005123'
p4071
I5
sS'2046860001'
p4072
I63
sS'2046860002'
p4073
I9
sS'2046860003'
p4074
I17
sS'2046860005'
p4075
I13
sS'2046860006'
p4076
I32
sS'2046860007'
p4077
I21
sS'2014613002'
p4078
I5
sS'7000000115'
p4079
I132
sS'7000000114'
p4080
I10
sS'7000000111'
p4081
I82
sS'7000000110'
p4082
I64
sS'7000000113'
p4083
I34
sS'7000000112'
p4084
I74
sS'7000000119'
p4085
I102
sS'7000000118'
p4086
I97
sS'7000000357'
p4087
I7
sS'3300000519'
p4088
I18
sS'3300000517'
p4089
I41
sS'3300000514'
p4090
I9
sS'3300000515'
p4091
I49
sS'3300000513'
p4092
I8
sS'3300000510'
p4093
I109
sS'3300000511'
p4094
I46
sS'3300008068'
p4095
I10
sS'3300008069'
p4096
I155
sS'3300008062'
p4097
I112
sS'3300008063'
p4098
I106
sS'3300008060'
p4099
I71
sS'3300008061'
p4100
I27
sS'3300008066'
p4101
I54
sS'3300008067'
p4102
I123
sS'3300008064'
p4103
I4
sS'3300008065'
p4104
I30
sS'3300007557'
p4105
I197
sS'3300007556'
p4106
I1
sS'3300007555'
p4107
I106
sS'3300007554'
p4108
I140
sS'3300007552'
p4109
I98
sS'3300007551'
p4110
I245
sS'3300004289'
p4111
I1
sS'3300004286'
p4112
I1
sS'3300001979'
p4113
I158
sS'3300001978'
p4114
I40
sS'3300000254'
p4115
I98
sS'3300001973'
p4116
I121
sS'3300001972'
p4117
I157
sS'3300001971'
p4118
I57
sS'3300001970'
p4119
I185
sS'3300001977'
p4120
I52
sS'3300000257'
p4121
I40
sS'3300001974'
p4122
I249
sS'3300004285'
p4123
I2
sS'3300000251'
p4124
I31
sS'3300000250'
p4125
I50
sS'3300000253'
p4126
I7
sS'3300004281'
p4127
I166
sS'3300007566'
p4128
I78
sS'3300007562'
p4129
I369
sS'3300007560'
p4130
I309
sS'3300004287'
p4131
I5
sS'2051774008'
p4132
I19
sS'3300001605'
p4133
I987
sS'2051774007'
p4134
I18
sS'2124908008'
p4135
I17
sS'2124908009'
p4136
I42
sS'2124908004'
p4137
I152
sS'3300004282'
p4138
I1981
sS'2124908006'
p4139
I17
sS'2124908007'
p4140
I32
sS'2124908002'
p4141
I48
sS'2124908003'
p4142
I248
sS'3300007387'
p4143
I2
sS'3300006169'
p4144
I536
sS'3300002115'
p4145
I1
sS'3300002118'
p4146
I27
sS'3300002119'
p4147
I348
sS'3300006167'
p4148
I35
sS'3300006166'
p4149
I733
sS'3300006163'
p4150
I796
sS'3300006162'
p4151
I1465
sS'3300005461'
p4152
I516
sS'3300005460'
p4153
I162
sS'3300005463'
p4154
I5
sS'3300005462'
p4155
I1
sS'3300005465'
p4156
I6
sS'3300005464'
p4157
I4
sS'3300005467'
p4158
I1915
sS'3300005466'
p4159
I943
sS'3300005469'
p4160
I132
sS'3300005468'
p4161
I2033
sS'3300003603'
p4162
I37
sS'3300003602'
p4163
I122
sS'3300003601'
p4164
I92
sS'3300003600'
p4165
I36
sS'3300003607'
p4166
I10
sS'3300003606'
p4167
I58
sS'3300003605'
p4168
I70
sS'3300003604'
p4169
I43
sS'3300006381'
p4170
I104
sS'3300006380'
p4171
I36
sS'3300006383'
p4172
I3
sS'3300006382'
p4173
I25
sS'3300006385'
p4174
I15
sS'3300006384'
p4175
I5
sS'3300006387'
p4176
I148
sS'3300006386'
p4177
I162
sS'3300006389'
p4178
I174
sS'3300006388'
p4179
I140
sS'3300005605'
p4180
I221
sS'3300005604'
p4181
I231
sS'3300005607'
p4182
I362
sS'3300005606'
p4183
I352
sS'3300005601'
p4184
I639
sS'3300005600'
p4185
I681
sS'3300005603'
p4186
I176
sS'3300005602'
p4187
I1063
sS'3300005609'
p4188
I783
sS'3300005608'
p4189
I90
sS'2119805012'
p4190
I74
sS'2119805011'
p4191
I56
sS'3300008651'
p4192
I10
sS'3300008650'
p4193
I102
sS'3300008654'
p4194
I13
sS'3300008657'
p4195
I9
sS'3300006833'
p4196
I84
sS'3300006832'
p4197
I75
sS'3300006837'
p4198
I130
sS'3300006836'
p4199
I8
sS'3300006835'
p4200
I101
sS'3300006834'
p4201
I79
sS'3300006838'
p4202
I106
sS'3300008383'
p4203
I44
sS'3300008382'
p4204
I67
sS'3300008381'
p4205
I8
sS'3300008385'
p4206
I19
sS'3300008384'
p4207
I8
sS'3300008474'
p4208
I30
sS'3300008477'
p4209
I3
sS'3300008476'
p4210
I1
sS'3300008471'
p4211
I31
sS'3300008470'
p4212
I1314
sS'3300008473'
p4213
I6
sS'3300008472'
p4214
I96
sS'3300008479'
p4215
I104
sS'3300008478'
p4216
I55
sS'7000000340'
p4217
I1
sS'7000000341'
p4218
I10
sS'7000000342'
p4219
I49
sS'3300001196'
p4220
I52
sS'3300007862'
p4221
I203
sS'7000000346'
p4222
I74
sS'7000000348'
p4223
I83
sS'7000000349'
p4224
I72
sS'3300007152'
p4225
I109
sS'3300007150'
p4226
I64
sS'3300007154'
p4227
I10
sS'3300004152'
p4228
I1838
sS'3300004153'
p4229
I1047
sS'3300004150'
p4230
I162
sS'3300004151'
p4231
I873
sS'3300004156'
p4232
I1445
sS'3300004157'
p4233
I1523
sS'3300004154'
p4234
I825
sS'3300004155'
p4235
I845
sS'3300004408'
p4236
I15
sS'3300004409'
p4237
I33
sS'3300004158'
p4238
I24
sS'3300004159'
p4239
I15
sS'3300007171'
p4240
I230
sS'3300007170'
p4241
I1
sS'3300007173'
p4242
I2
sS'3300007172'
p4243
I2
sS'3300007175'
p4244
I2
sS'3300007177'
p4245
I543
sS'3300007176'
p4246
I5
sS'3300007179'
p4247
I2
sS'3300007178'
p4248
I18
sS'3300000239'
p4249
I103
sS'3300000238'
p4250
I41
sS'3300000233'
p4251
I128
sS'3300000232'
p4252
I112
sS'3300000231'
p4253
I552
sS'3300000230'
p4254
I203
sS'3300000237'
p4255
I49
sS'3300000236'
p4256
I65
sS'3300000235'
p4257
I59
sS'3300000234'
p4258
I116
sS'3300000725'
p4259
I6
sS'3300000724'
p4260
I2
sS'3300000727'
p4261
I16
sS'3300000726'
p4262
I3
sS'3300000721'
p4263
I4
sS'3300000720'
p4264
I3
sS'3300000723'
p4265
I5
sS'3300007805'
p4266
I33
sS'3300000729'
p4267
I11
sS'3300000728'
p4268
I28
sS'3300007804'
p4269
I18
sS'3300007715'
p4270
I178
sS'3300007714'
p4271
I56
sS'3300007717'
p4272
I60
sS'3300007716'
p4273
I233
sS'3300007711'
p4274
I70
sS'3300007713'
p4275
I87
sS'3300007712'
p4276
I519
sS'3300006969'
p4277
I1006
sS'3300007718'
p4278
I104
sS'3300006968'
p4279
I26
sS'3300000870'
p4280
I41
sS'3300000873'
p4281
I14
sS'3300000872'
p4282
I44
sS'3300000875'
p4283
I8
sS'3300000874'
p4284
I47
sS'3300004824'
p4285
I11
sS'3300004825'
p4286
I3
sS'3300003453'
p4287
I87
sS'3300006448'
p4288
I8
sS'3300006449'
p4289
I2
sS'3300006442'
p4290
I4
sS'3300006443'
p4291
I4
sS'3300006440'
p4292
I5
sS'3300006441'
p4293
I17
sS'3300006446'
p4294
I24
sS'3300006447'
p4295
I40
sS'3300006444'
p4296
I6
sS'3300005850'
p4297
I1
sS'3300005851'
p4298
I18
sS'3300005852'
p4299
I23
sS'3300005853'
p4300
I31
sS'3300005854'
p4301
I58
sS'3300005855'
p4302
I46
sS'3300005856'
p4303
I41
sS'3300005857'
p4304
I47
sS'3300005858'
p4305
I60
sS'3300005859'
p4306
I32
sS'3300008528'
p4307
I3
sS'3300002491'
p4308
I128
sS'3300002490'
p4309
I194
sS'3300002493'
p4310
I116
sS'3300002492'
p4311
I210
sS'3300002494'
p4312
I17
sS'3300002497'
p4313
I94
sS'3300002496'
p4314
I15
sS'3300002498'
p4315
I665
sS'3300007737'
p4316
I3
sS'3300007736'
p4317
I115
sS'3300006468'
p4318
I642
sS'3300002704'
p4319
I19
sS'7000000681'
p4320
I78
sS'7000000683'
p4321
I2
sS'3300003122'
p4322
I4
sS'7000000684'
p4323
I96
sS'7000000285'
p4324
I160
sS'7000000287'
p4325
I3
sS'3300003121'
p4326
I12
sS'7000000281'
p4327
I71
sS'3300001045'
p4328
I1
sS'7000000283'
p4329
I32
sS'7000000282'
p4330
I128
sS'3300003126'
p4331
I17
sS'7000000289'
p4332
I83
sS'7000000288'
p4333
I192
sS'3300003127'
p4334
I13
sS'3300005146'
p4335
I31
sS'3300005147'
p4336
I16
sS'3300005144'
p4337
I435
sS'3300005145'
p4338
I400
sS'3300005142'
p4339
I21
sS'3300005143'
p4340
I36
sS'3300005140'
p4341
I23
sS'3300005141'
p4342
I36
sS'3300005148'
p4343
I12
sS'3300005149'
p4344
I2
sS'2010388001'
p4345
I23
sS'3300004272'
p4346
I1
sS'3300000530'
p4347
I4
sS'3300000531'
p4348
I3
sS'3300000532'
p4349
I9
sS'3300000533'
p4350
I12
sS'3300000534'
p4351
I28
sS'3300000536'
p4352
I9
sS'3300000537'
p4353
I4
sS'3300000930'
p4354
I310
sS'3300000931'
p4355
I95
sS'3300006693'
p4356
I10
sS'3300008048'
p4357
I16
sS'3300000932'
p4358
I51
sS'3300008044'
p4359
I4
sS'3300008045'
p4360
I4
sS'3300008046'
p4361
I5
sS'3300000933'
p4362
I15
sS'3300008040'
p4363
I1
sS'3300008041'
p4364
I3
sS'3300008042'
p4365
I5
sS'3300000854'
p4366
I36
sS'7000000139'
p4367
I36
sS'3300001915'
p4368
I66
sS'3300001914'
p4369
I268
sS'7000000134'
p4370
I9
sS'7000000133'
p4371
I1
sS'3300002387'
p4372
I5
sS'7000000131'
p4373
I36
sS'7000000130'
p4374
I35
sS'3300004369'
p4375
I184
sS'3300004368'
p4376
I60
sS'3300002386'
p4377
I13
sS'3300000398'
p4378
I17
sS'3300000394'
p4379
I22
sS'3300004360'
p4380
I75
sS'3300004363'
p4381
I62
sS'3300000397'
p4382
I23
sS'3300004365'
p4383
I54
sS'3300004364'
p4384
I59
sS'3300000392'
p4385
I7
sS'3300000393'
p4386
I60
sS'3300003841'
p4387
I49
sS'3300003840'
p4388
I6
sS'3300003843'
p4389
I25
sS'3300003842'
p4390
I69
sS'3300007544'
p4391
I199
sS'3300003844'
p4392
I183
sS'3300003847'
p4393
I77
sS'3300003846'
p4394
I216
sS'3300003849'
p4395
I11
sS'3300003848'
p4396
I124
sS'3300001622'
p4397
I1
sS'3300001626'
p4398
I2
sS'3300007812'
p4399
I10
sS'3300007810'
p4400
I31
sS'3300007811'
p4401
I6
sS'3300007816'
p4402
I1
sS'3300007817'
p4403
I12
sS'3300007814'
p4404
I23
sS'3300007815'
p4405
I2
sS'3300007818'
p4406
I18
sS'3300007819'
p4407
I68
sS'3300006147'
p4408
I71
sS'3300006146'
p4409
I53
sS'3300006145'
p4410
I26
sS'3300006632'
p4411
I14
sS'3300006143'
p4412
I35
sS'3300006634'
p4413
I27
sS'3300006141'
p4414
I43
sS'3300006140'
p4415
I81
sS'3300006639'
p4416
I243
sS'3300006638'
p4417
I549
sS'3300006149'
p4418
I60
sS'3300006148'
p4419
I70
sS'3300002398'
p4420
I20
sS'3300002399'
p4421
I28
sS'3300002396'
p4422
I14
sS'3300002397'
p4423
I22
sS'3300002394'
p4424
I9
sS'3300002395'
p4425
I1
sS'3300002392'
p4426
I150
sS'3300002393'
p4427
I9
sS'3300002390'
p4428
I2
sS'3300002391'
p4429
I109
sS'3300005449'
p4430
I12
sS'3300005448'
p4431
I3
sS'3300005443'
p4432
I98
sS'3300005442'
p4433
I15
sS'3300005441'
p4434
I1263
sS'3300005440'
p4435
I1181
sS'3300005447'
p4436
I812
sS'3300005446'
p4437
I875
sS'3300005445'
p4438
I2136
sS'3300005444'
p4439
I1014
sS'3300008679'
p4440
I150
sS'3300008672'
p4441
I59
sS'3300008676'
p4442
I24
sS'3300002538'
p4443
I179
sS'3300002539'
p4444
I12
sS'3300002532'
p4445
I206
sS'3300002533'
p4446
I30
sS'3300002530'
p4447
I187
sS'3300002531'
p4448
I91
sS'3300002537'
p4449
I8
sS'3300002534'
p4450
I34
sS'3300006855'
p4451
I9
sS'3300006854'
p4452
I2399
sS'3300006857'
p4453
I12
sS'3300006856'
p4454
I58
sS'3300006851'
p4455
I549
sS'3300006850'
p4456
I37
sS'3300006853'
p4457
I1359
sS'3300006852'
p4458
I1281
sS'3300006859'
p4459
I17
sS'3300006858'
p4460
I21
sS'3300005629'
p4461
I7
sS'3300005628'
p4462
I4
sS'3300005627'
p4463
I20
sS'3300005626'
p4464
I4
sS'3300005625'
p4465
I2
sS'3300005624'
p4466
I1
sS'3300005623'
p4467
I3
sS'3300005622'
p4468
I8
sS'3300008459'
p4469
I1
sS'3300008455'
p4470
I26
sS'3300008454'
p4471
I98
sS'3300008450'
p4472
I4
sS'3300007561'
p4473
I151
sS'3300004174'
p4474
I32
sS'3300004175'
p4475
I92
sS'3300004176'
p4476
I83
sS'3300004177'
p4477
I86
sS'3300004170'
p4478
I12
sS'3300004171'
p4479
I70
sS'3300004172'
p4480
I24
sS'3300004173'
p4481
I56
sS'3300004178'
p4482
I84
sS'3300004179'
p4483
I90
sS'3300007485'
p4484
I8
sS'3300007484'
p4485
I9
sS'3300007487'
p4486
I21
sS'3300007486'
p4487
I1
sS'3300007481'
p4488
I5
sS'3300007480'
p4489
I6
sS'3300007483'
p4490
I10
sS'3300007482'
p4491
I7
sS'3300007489'
p4492
I24
sS'3300007488'
p4493
I8
sS'3300007277'
p4494
I50
sS'3300006868'
p4495
I153
sS'3300000259'
p4496
I39
sS'3300000258'
p4497
I34
sS'3300000709'
p4498
I8
sS'3300000708'
p4499
I6
sS'3300000255'
p4500
I88
sS'3300000706'
p4501
I2
sS'3300000705'
p4502
I3
sS'3300000704'
p4503
I1
sS'3300000703'
p4504
I2
sS'3300000702'
p4505
I2
sS'3300004280'
p4506
I327
sS'3300000252'
p4507
I14
sS'3300007270'
p4508
I18
sS'7000000190'
p4509
I46
sS'3300006862'
p4510
I80
sS'3300002522'
p4511
I7
sS'7000000083'
p4512
I86
sS'3300001811'
p4513
I17
sS'3300002525'
p4514
I2
sS'7000000562'
p4515
I1
sS'3300002524'
p4516
I32
sS'3300007158'
p4517
I11
sS'3300002527'
p4518
I25
sS'3300007153'
p4519
I79
sS'3300001814'
p4520
I50
sS'3300007151'
p4521
I47
sS'3300006867'
p4522
I213
sS'3300007157'
p4523
I6
sS'3300007156'
p4524
I3
sS'3300007155'
p4525
I3
sS'3300001815'
p4526
I265
sS'3300006288'
p4527
I10
sS'3300006289'
p4528
I61
sS'7000000567'
p4529
I1
sS'3300006284'
p4530
I18
sS'3300006286'
p4531
I15
sS'3300006287'
p4532
I6
sS'3300000879'
p4533
I37
sS'3300000878'
p4534
I30
sS'3300004828'
p4535
I42
sS'3300004829'
p4536
I6
sS'3300000871'
p4537
I40
sS'3300004823'
p4538
I4
sS'3300004820'
p4539
I3
sS'3300004821'
p4540
I20
sS'3300004826'
p4541
I19
sS'3300004827'
p4542
I34
sS'3300000877'
p4543
I11
sS'3300000876'
p4544
I38
sS'3300003472'
p4545
I163
sS'3300003475'
p4546
I31
sS'3300007739'
p4547
I1
sS'3300007738'
p4548
I2
sS'3300003478'
p4549
I103
sS'3300003479'
p4550
I4
sS'3300007734'
p4551
I1
sS'3300007733'
p4552
I14
sS'3300007732'
p4553
I39
sS'3300007731'
p4554
I5
sS'3300007730'
p4555
I1
sS'3300002701'
p4556
I208
sS'3300002700'
p4557
I223
sS'3300002703'
p4558
I441
sS'3300002702'
p4559
I322
sS'3300002705'
p4560
I81
sS'3300006469'
p4561
I1
sS'3300006464'
p4562
I126
sS'3300006465'
p4563
I116
sS'3300006466'
p4564
I95
sS'3300006467'
p4565
I2956
sS'3300006460'
p4566
I27
sS'3300006461'
p4567
I89
sS'3300006462'
p4568
I50
sS'3300006463'
p4569
I71
sS'7000000619'
p4570
I7
sS'3300004736'
p4571
I6
sS'3300004737'
p4572
I16
sS'7000000612'
p4573
I93
sS'2049941001'
p4574
I70
sS'2049941000'
p4575
I342
sS'2049941003'
p4576
I30
sS'2049941002'
p4577
I6
sS'3300004087'
p4578
I3
sS'7000000617'
p4579
I1
sS'7000000614'
p4580
I15
sS'3300009089'
p4581
I1987
sS'3300009088'
p4582
I1724
sS'3300009087'
p4583
I1929
sS'3300009086'
p4584
I804
sS'3300009085'
p4585
I1395
sS'3300009084'
p4586
I1239
sS'3300009083'
p4587
I1235
sS'3300009082'
p4588
I1715
sS'3300009081'
p4589
I1030
sS'3300009080'
p4590
I795
sS'3300007093'
p4591
I67
sS'3300007091'
p4592
I45
sS'3300007096'
p4593
I50
sS'3300006694'
p4594
I2
sS'3300007097'
p4595
I24
sS'3300005168'
p4596
I210
sS'3300005169'
p4597
I170
sS'3300005160'
p4598
I14
sS'3300005161'
p4599
I36
sS'3300005162'
p4600
I96
sS'3300005163'
p4601
I108
sS'3300005164'
p4602
I95
sS'3300005165'
p4603
I100
sS'3300005166'
p4604
I382
sS'3300005167'
p4605
I912
sS'3300008027'
p4606
I4
sS'3300008024'
p4607
I3
sS'3300008022'
p4608
I1
sS'3300008023'
p4609
I2
sS'3300008020'
p4610
I306
sS'3300008021'
p4611
I240
sS'3300008028'
p4612
I1
sS'3300008029'
p4613
I5
sS'7000000739'
p4614
I5
sS'7000000738'
p4615
I81
sS'7000000735'
p4616
I27
sS'7000000734'
p4617
I11
sS'7000000737'
p4618
I90
sS'7000000736'
p4619
I95
sS'7000000731'
p4620
I61
sS'7000000730'
p4621
I16
sS'7000000733'
p4622
I1
sS'7000000732'
p4623
I3
sS'3300001393'
p4624
I17
sS'3300001936'
p4625
I25
sS'3300001423'
p4626
I29
sS'3300001422'
p4627
I28
sS'3300001397'
p4628
I43
sS'3300001424'
p4629
I15
sS'3300001395'
p4630
I447
sS'3300001394'
p4631
I76
sS'3300001429'
p4632
I25
sS'3300001428'
p4633
I41
sS'3300001399'
p4634
I2
sS'3300001398'
p4635
I80
sS'3300007249'
p4636
I4
sS'3300001939'
p4637
I7
sS'3300001938'
p4638
I24
sS'3300004343'
p4639
I45
sS'3300004342'
p4640
I22
sS'3300004613'
p4641
I13
sS'3300004612'
p4642
I36
sS'3300004347'
p4643
I37
sS'3300004346'
p4644
I57
sS'3300004617'
p4645
I32
sS'3300004616'
p4646
I18
sS'3300004619'
p4647
I33
sS'3300004618'
p4648
I27
sS'3300004349'
p4649
I56
sS'3300004348'
p4650
I35
sS'3300004886'
p4651
I29
sS'3300003868'
p4652
I44
sS'3300003863'
p4653
I2
sS'3300004880'
p4654
I22
sS'3300003861'
p4655
I403
sS'3300003860'
p4656
I115
sS'3300003867'
p4657
I4
sS'3300003866'
p4658
I1
sS'3300003865'
p4659
I2
sS'3300003864'
p4660
I19
sS'3300004550'
p4661
I16
sS'3300004883'
p4662
I23
sS'3300001647'
p4663
I3
sS'3300001641'
p4664
I2
sS'3300001640'
p4665
I2
sS'3300001648'
p4666
I7
sS'3300003395'
p4667
I89
sS'3300003394'
p4668
I67
sS'3300003397'
p4669
I7
sS'3300003396'
p4670
I10
sS'3300003391'
p4671
I8
sS'3300003393'
p4672
I67
sS'3300003392'
p4673
I5
sS'3300003399'
p4674
I5
sS'3300003398'
p4675
I10
sS'3300006619'
p4676
I39
sS'3300006618'
p4677
I2
sS'3300006613'
p4678
I10
sS'3300006612'
p4679
I4
sS'3300006611'
p4680
I6
sS'3300006610'
p4681
I24
sS'3300006617'
p4682
I146
sS'3300006616'
p4683
I125
sS'3300006615'
p4684
I132
sS'3300006614'
p4685
I52
sS'3300000118'
p4686
I41
sS'3300000119'
p4687
I321
sS'3300000110'
p4688
I3
sS'3300000111'
p4689
I11
sS'3300000116'
p4690
I133
sS'3300000117'
p4691
I211
sS'3300000114'
p4692
I792
sS'3300000115'
p4693
I118
sS'3300003139'
p4694
I19
sS'3300003138'
p4695
I32
sS'3300003649'
p4696
I28
sS'3300003130'
p4697
I22
sS'3300003133'
p4698
I1
sS'3300003132'
p4699
I16
sS'3300003135'
p4700
I23
sS'3300003134'
p4701
I5
sS'3300003137'
p4702
I4
sS'3300003640'
p4703
I10
sS'2124908040'
p4704
I131
sS'2124908041'
p4705
I167
sS'2124908042'
p4706
I29
sS'2124908043'
p4707
I52
sS'2124908044'
p4708
I65
sS'2124908045'
p4709
I99
sS'3300005429'
p4710
I198
sS'3300005428'
p4711
I210
sS'3300005425'
p4712
I230
sS'3300005424'
p4713
I352
sS'3300005427'
p4714
I232
sS'3300005426'
p4715
I196
sS'3300005421'
p4716
I48
sS'3300005420'
p4717
I29
sS'3300005423'
p4718
I256
sS'3300005422'
p4719
I291
sS'3300008619'
p4720
I19
sS'3300008618'
p4721
I12
sS'3300008615'
p4722
I88
sS'3300008614'
p4723
I54
sS'3300008617'
p4724
I13
sS'3300008616'
p4725
I2
sS'3300008611'
p4726
I104
sS'3300008610'
p4727
I1
sS'3300008612'
p4728
I2
sS'3300002518'
p4729
I6
sS'3300002519'
p4730
I9
sS'3300006879'
p4731
I1084
sS'3300006878'
p4732
I1
sS'3300002514'
p4733
I3
sS'3300006876'
p4734
I801
sS'3300006875'
p4735
I242
sS'3300006874'
p4736
I267
sS'3300002510'
p4737
I64
sS'3300006872'
p4738
I229
sS'3300006871'
p4739
I1851
sS'3300006870'
p4740
I258
sS'3300005397'
p4741
I59
sS'3300005396'
p4742
I6
sS'3300005393'
p4743
I250
sS'3300005392'
p4744
I13
sS'3300005390'
p4745
I16
sS'3300005399'
p4746
I367
sS'3300005398'
p4747
I158
sS'3300008923'
p4748
I4
sS'3300008922'
p4749
I10
sS'3300008921'
p4750
I5
sS'3300008920'
p4751
I4
sS'3300008927'
p4752
I2
sS'3300008925'
p4753
I1
sS'3300008929'
p4754
I24
sS'3300008928'
p4755
I7
sS'3300007549'
p4756
I330
sS'3300008551'
p4757
I79
sS'3300001091'
p4758
I17
sS'3300001095'
p4759
I193
sS'3300001096'
p4760
I313
sS'3300001097'
p4761
I40
sS'3300001098'
p4762
I3
sS'2162886006'
p4763
I31
sS'7000000079'
p4764
I1
sS'7000000072'
p4765
I6
sS'7000000073'
p4766
I137
sS'7000000071'
p4767
I107
sS'7000000076'
p4768
I6
sS'7000000077'
p4769
I21
sS'7000000074'
p4770
I108
sS'7000000075'
p4771
I23
sS'3300002951'
p4772
I38
sS'3300004953'
p4773
I49
sS'3300004950'
p4774
I63
sS'3300004119'
p4775
I1
sS'3300004117'
p4776
I1
sS'3300004114'
p4777
I1963
sS'3300004112'
p4778
I240
sS'3300004113'
p4779
I528
sS'3300004110'
p4780
I174
sS'3300004111'
p4781
I315
sS'3300007505'
p4782
I96
sS'3300000277'
p4783
I23
sS'3300000276'
p4784
I35
sS'3300000275'
p4785
I35
sS'3300000274'
p4786
I34
sS'3300000273'
p4787
I62
sS'3300000272'
p4788
I4
sS'3300000271'
p4789
I64
sS'3300000270'
p4790
I20
sS'3300000279'
p4791
I78
sS'3300000278'
p4792
I107
sS'3300007507'
p4793
I9
sS'3300007500'
p4794
I111
sS'3300007139'
p4795
I31
sS'3300007138'
p4796
I20
sS'3300007135'
p4797
I82
sS'3300007134'
p4798
I84
sS'3300007137'
p4799
I67
sS'3300007136'
p4800
I15
sS'3300007131'
p4801
I4
sS'3300007130'
p4802
I16
sS'3300007133'
p4803
I57
sS'3300003989'
p4804
I292
sS'3300006262'
p4805
I71
sS'3300006260'
p4806
I44
sS'3300006261'
p4807
I49
sS'3300007609'
p4808
I82
sS'3300007608'
p4809
I9
sS'3300000853'
p4810
I1
sS'3300000852'
p4811
I11
sS'3300000851'
p4812
I5
sS'3300004808'
p4813
I407
sS'3300003985'
p4814
I18
sS'3300004804'
p4815
I199
sS'3300004805'
p4816
I274
sS'3300004806'
p4817
I329
sS'3300004807'
p4818
I146
sS'3300004800'
p4819
I43
sS'3300004801'
p4820
I54
sS'3300004802'
p4821
I172
sS'3300004803'
p4822
I65
sS'3300007356'
p4823
I54
sS'3300007351'
p4824
I712
sS'3300007602'
p4825
I5
sS'3300007601'
p4826
I5
sS'3300007503'
p4827
I7
sS'3300007600'
p4828
I247
sS'3300006406'
p4829
I7
sS'3300006407'
p4830
I4
sS'3300006404'
p4831
I82
sS'3300006405'
p4832
I92
sS'3300006402'
p4833
I104
sS'3300006403'
p4834
I113
sS'3300006400'
p4835
I72
sS'3300006401'
p4836
I52
sS'3300006000'
p4837
I13
sS'3300006408'
p4838
I3
sS'3300006409'
p4839
I1
sS'3300006001'
p4840
I19
sS'3300006006'
p4841
I35
sS'3300006007'
p4842
I38
sS'3300001937'
p4843
I30
sS'3300006004'
p4844
I23
sS'3300006005'
p4845
I12
sS'3300001935'
p4846
I21
sS'3300001425'
p4847
I292
sS'3300001396'
p4848
I46
sS'3300001427'
p4849
I19
sS'3300001426'
p4850
I1
sS'3300009061'
p4851
I899
sS'3300009060'
p4852
I298
sS'3300009063'
p4853
I6
sS'3300009062'
p4854
I9
sS'3300009065'
p4855
I10
sS'3300009064'
p4856
I5
sS'3300009066'
p4857
I2
sS'3300009069'
p4858
I20
sS'3300009068'
p4859
I416
sS'3300002727'
p4860
I24
sS'3300002725'
p4861
I1
sS'3300004611'
p4862
I21
sS'3300005988'
p4863
I483
sS'3300005989'
p4864
I496
sS'3300004610'
p4865
I19
sS'3300005982'
p4866
I463
sS'3300005983'
p4867
I401
sS'3300005980'
p4868
I350
sS'3300005981'
p4869
I616
sS'3300005986'
p4870
I523
sS'3300005987'
p4871
I385
sS'3300005984'
p4872
I19
sS'3300005985'
p4873
I503
sS'3300004615'
p4874
I21
sS'3300004614'
p4875
I19
sS'3300004345'
p4876
I55
sS'3300004344'
p4877
I24
sS'3300007509'
p4878
I112
sS'3300005182'
p4879
I234
sS'3300005183'
p4880
I291
sS'3300005180'
p4881
I970
sS'3300005181'
p4882
I840
sS'3300005186'
p4883
I908
sS'3300005187'
p4884
I1066
sS'3300005184'
p4885
I733
sS'3300005185'
p4886
I14
sS'3300006488'
p4887
I76
sS'3300006489'
p4888
I24
sS'3300006486'
p4889
I13
sS'3300002906'
p4890
I171
sS'3300004566'
p4891
I7
sS'3300006482'
p4892
I42
sS'3300006483'
p4893
I59
sS'3300008008'
p4894
I242
sS'3300008009'
p4895
I332
sS'3300008558'
p4896
I2
sS'3300008559'
p4897
I5
sS'3300006480'
p4898
I36
sS'3300008000'
p4899
I182
sS'3300008001'
p4900
I289
sS'3300008002'
p4901
I340
sS'3300006481'
p4902
I77
sS'3300008004'
p4903
I281
sS'3300008005'
p4904
I289
sS'3300008006'
p4905
I5
sS'3300008007'
p4906
I309
sS'7000000241'
p4907
I41
sS'7000000240'
p4908
I131
sS'7000000243'
p4909
I89
sS'7000000714'
p4910
I1
sS'7000000713'
p4911
I140
sS'7000000244'
p4912
I172
sS'7000000247'
p4913
I128
sS'7000000246'
p4914
I63
sS'7000000249'
p4915
I35
sS'7000000248'
p4916
I10
sS'7000000719'
p4917
I3
sS'3300001409'
p4918
I13
sS'3300001408'
p4919
I65
sS'3300001403'
p4920
I29
sS'3300001402'
p4921
I101
sS'3300001401'
p4922
I63
sS'3300001400'
p4923
I4
sS'3300001407'
p4924
I22
sS'3300001406'
p4925
I5
sS'3300001405'
p4926
I8
sS'3300001404'
p4927
I22
sS'3300004295'
p4928
I20
sS'2014642005'
p4929
I7
sS'2014642004'
p4930
I9
sS'2014642003'
p4931
I9
sS'2014642002'
p4932
I10
sS'2014642001'
p4933
I5
sS'2014642000'
p4934
I4
sS'3300004325'
p4935
I18
sS'3300004320'
p4936
I14
sS'3300004323'
p4937
I13
sS'3300004329'
p4938
I35
sS'3300004328'
p4939
I32
sS'3300003809'
p4940
I16
sS'3300003808'
p4941
I11
sS'3300003805'
p4942
I8
sS'3300003804'
p4943
I6
sS'3300003807'
p4944
I3
sS'3300003806'
p4945
I10
sS'3300003801'
p4946
I19
sS'3300003800'
p4947
I19
sS'3300003803'
p4948
I5
sS'3300003802'
p4949
I4
sS'3300001664'
p4950
I61
sS'3300001661'
p4951
I565
sS'3300007643'
p4952
I855
sS'3300004639'
p4953
I16
sS'3300004638'
p4954
I9
sS'3300004633'
p4955
I801
sS'3300004631'
p4956
I80
sS'3300004630'
p4957
I3
sS'3300004637'
p4958
I7
sS'3300004636'
p4959
I2
sS'3300004635'
p4960
I1049
sS'3300004634'
p4961
I874
sS'3300007859'
p4962
I1
sS'3300007856'
p4963
I1
sS'3300007857'
p4964
I10
sS'3300007670'
p4965
I174
sS'3300007855'
p4966
I6
sS'3300007641'
p4967
I34
sS'3300007853'
p4968
I70
sS'3300006678'
p4969
I83
sS'3300006674'
p4970
I387
sS'3300006677'
p4971
I4
sS'3300006676'
p4972
I6
sS'3300006671'
p4973
I73
sS'3300006670'
p4974
I81
sS'3300006673'
p4975
I3
sS'3300006672'
p4976
I6
sS'3300000134'
p4977
I52
sS'3300000135'
p4978
I56
sS'3300000136'
p4979
I205
sS'3300000137'
p4980
I58
sS'3300000130'
p4981
I311
sS'3300000131'
p4982
I18
sS'3300000132'
p4983
I85
sS'3300000133'
p4984
I68
sS'3300003113'
p4985
I4
sS'3300003112'
p4986
I39
sS'3300003111'
p4987
I9
sS'3300003110'
p4988
I8
sS'3300003117'
p4989
I4
sS'3300003116'
p4990
I25
sS'3300003115'
p4991
I8
sS'3300003114'
p4992
I11
sS'3300007647'
p4993
I219
sS'3300003119'
p4994
I9
sS'3300003118'
p4995
I8
sS'3300007646'
p4996
I132
sS'2077657023'
p4997
I4
sS'2077657024'
p4998
I1
sS'3300006099'
p4999
I30
sS'3300006098'
p5000
I60
sS'3300006091'
p5001
I84
sS'3300006090'
p5002
I31
sS'3300006093'
p5003
I63
sS'3300006092'
p5004
I588
sS'3300006095'
p5005
I109
sS'3300007644'
p5006
I275
sS'3300005407'
p5007
I43
sS'3300005406'
p5008
I386
sS'3300005405'
p5009
I209
sS'3300005404'
p5010
I539
sS'3300005403'
p5011
I173
sS'3300005402'
p5012
I337
sS'3300005401'
p5013
I417
sS'3300005400'
p5014
I233
sS'3300005409'
p5015
I10
sS'3300005408'
p5016
I128
sS'3300008637'
p5017
I52
sS'3300008636'
p5018
I50
sS'3300008635'
p5019
I71
sS'3300008634'
p5020
I78
sS'3300008632'
p5021
I48
sS'3300008631'
p5022
I153
sS'3300008630'
p5023
I29
sS'3300007441'
p5024
I4
sS'3300008639'
p5025
I80
sS'3300008638'
p5026
I66
sS'3300006891'
p5027
I94
sS'3300006890'
p5028
I121
sS'3300006893'
p5029
I1241
sS'3300006892'
p5030
I69
sS'3300002572'
p5031
I2
sS'3300006894'
p5032
I819
sS'3300006897'
p5033
I22
sS'3300002571'
p5034
I1
sS'3300006899'
p5035
I104
sS'3300006898'
p5036
I45
sS'3300007440'
p5037
I1
sS'3300008945'
p5038
I9
sS'3300008944'
p5039
I11
sS'3300008947'
p5040
I28
sS'3300008946'
p5041
I11
sS'3300008941'
p5042
I11
sS'3300008940'
p5043
I4
sS'3300008943'
p5044
I7
sS'3300008942'
p5045
I17
sS'3300008949'
p5046
I31
sS'3300008948'
p5047
I16
sS'3300007442'
p5048
I5
sS'2015219002'
p5049
I52
sS'3300009104'
p5050
I831
sS'2015219000'
p5051
I12
sS'2015219001'
p5052
I2
sS'3300007445'
p5053
I1
sS'3300008884'
p5054
I3
sS'3300008885'
p5055
I100
sS'2149837015'
p5056
I5
sS'2149837017'
p5057
I9
sS'2149837016'
p5058
I9
sS'2149837010'
p5059
I3
sS'2149837012'
p5060
I4
sS'3300008887'
p5061
I12
sS'2149837019'
p5062
I19
sS'2149837018'
p5063
I10
sS'3300002679'
p5064
I1
sS'3300008499'
p5065
I34
sS'3300008498'
p5066
I31
sS'3300008493'
p5067
I87
sS'3300008492'
p5068
I7
sS'3300008491'
p5069
I41
sS'3300008490'
p5070
I106
sS'3300008497'
p5071
I68
sS'3300008496'
p5072
I49
sS'3300008495'
p5073
I56
sS'3300008494'
p5074
I26
sS'3300007768'
p5075
I3
sS'7000000503'
p5076
I121
sS'3300001870'
p5077
I148
sS'3300001871'
p5078
I102
sS'7000000058'
p5079
I86
sS'7000000507'
p5080
I115
sS'7000000504'
p5081
I36
sS'7000000505'
p5082
I6
sS'7000000054'
p5083
I19
sS'7000000056'
p5084
I3
sS'7000000057'
p5085
I71
sS'7000000050'
p5086
I4
sS'7000000051'
p5087
I8
sS'7000000052'
p5088
I72
sS'7000000053'
p5089
I9
sS'3300007769'
p5090
I333
sS'3300004135'
p5091
I3
sS'3300004136'
p5092
I2
sS'3300004137'
p5093
I2
sS'3300004138'
p5094
I1
sS'3300004139'
p5095
I31
sS'7000000454'
p5096
I40
sS'7000000455'
p5097
I143
sS'7000000457'
p5098
I64
sS'3300007837'
p5099
I1
sS'2058419010'
p5100
I9
sS'2058419016'
p5101
I20
sS'2058419017'
p5102
I17
sS'2058419015'
p5103
I8
sS'2058419018'
p5104
I11
sS'2058419019'
p5105
I12
sS'3300000707'
p5106
I2
sS'3300004798'
p5107
I29
sS'3300004799'
p5108
I46
sS'3300004830'
p5109
I30
sS'3300004794'
p5110
I64
sS'3300004795'
p5111
I48
sS'3300004796'
p5112
I93
sS'3300004797'
p5113
I58
sS'3300004790'
p5114
I79
sS'3300004833'
p5115
I54
sS'3300004792'
p5116
I72
sS'3300004793'
p5117
I62
sS'3300005902'
p5118
I91
sS'3300004832'
p5119
I54
sS'3300005903'
p5120
I61
sS'3300005272'
p5121
I12
sS'3300007839'
p5122
I4
sS'2189573005'
p5123
I10
sS'2189573004'
p5124
I63
sS'3300007443'
p5125
I2
sS'3300005901'
p5126
I63
sS'2189573001'
p5127
I55
sS'2189573000'
p5128
I62
sS'2189573003'
p5129
I36
sS'2189573002'
p5130
I52
sS'3300007449'
p5131
I1
sS'3300007448'
p5132
I1
sS'3300004836'
p5133
I86
sS'3300007119'
p5134
I128
sS'3300007118'
p5135
I69
sS'3300006244'
p5136
I17
sS'3300006245'
p5137
I46
sS'3300006246'
p5138
I8
sS'3300006795'
p5139
I683
sS'3300006792'
p5140
I336
sS'3300006241'
p5141
I27
sS'3300006790'
p5142
I150
sS'3300006243'
p5143
I63
sS'3300005905'
p5144
I74
sS'3300006248'
p5145
I54
sS'3300006249'
p5146
I110
sS'3300006798'
p5147
I4
sS'3300006799'
p5148
I200
sS'3300004866'
p5149
I32
sS'3300004867'
p5150
I39
sS'3300000837'
p5151
I34
sS'3300004865'
p5152
I39
sS'3300004862'
p5153
I19
sS'3300004863'
p5154
I52
sS'3300004860'
p5155
I29
sS'3300004861'
p5156
I39
sS'3300004868'
p5157
I29
sS'3300004869'
p5158
I45
sS'3300007354'
p5159
I111
sS'3300007526'
p5160
I3
sS'3300005050'
p5161
I98
sS'3300005723'
p5162
I260
sS'3300005720'
p5163
I1
sS'3300009049'
p5164
I243
sS'3300005721'
p5165
I86
sS'3300009043'
p5166
I2
sS'3300005726'
p5167
I5
sS'3300009041'
p5168
I15
sS'3300009040'
p5169
I15
sS'3300009047'
p5170
I26
sS'3300009046'
p5171
I5
sS'3300009045'
p5172
I9
sS'3300009044'
p5173
I9
sS'3300003569'
p5174
I5
sS'3300005724'
p5175
I11
sS'3300003562'
p5176
I1
sS'3300003563'
p5177
I1
sS'3300003560'
p5178
I1
sS'3300003561'
p5179
I1
sS'3300003566'
p5180
I8
sS'3300003567'
p5181
I4
sS'3300003564'
p5182
I1
sS'3300003565'
p5183
I3
sS'3300000700'
p5184
I1
sS'3300006541'
p5185
I13
sS'3300002969'
p5186
I1
sS'3300000035'
p5187
I90
sS'3300002961'
p5188
I481
sS'3300006421'
p5189
I74
sS'3300002963'
p5190
I194
sS'3300006423'
p5191
I66
sS'3300002965'
p5192
I132
sS'3300002740'
p5193
I78
sS'3300006426'
p5194
I116
sS'3300002966'
p5195
I948
sS'3300005212'
p5196
I3
sS'3300005213'
p5197
I177
sS'3300005210'
p5198
I4
sS'3300005211'
p5199
I1
sS'3300005216'
p5200
I386
sS'3300005217'
p5201
I399
sS'3300005214'
p5202
I262
sS'3300005215'
p5203
I291
sS'3300005218'
p5204
I180
sS'3300005219'
p5205
I387
sS'3300000030'
p5206
I108
sS'3300006470'
p5207
I49
sS'3300006477'
p5208
I80
sS'3300004061'
p5209
I102
sS'2042536000'
p5210
I28
sS'2042536001'
p5211
I46
sS'2042536002'
p5212
I44
sS'3300001035'
p5213
I1
sS'3300003642'
p5214
I10
sS'3300008799'
p5215
I1
sS'3300003641'
p5216
I5
sS'3300004227'
p5217
I43
sS'3300008791'
p5218
I42
sS'3300003136'
p5219
I23
sS'3300008794'
p5220
I2
sS'3300008795'
p5221
I3
sS'3300008797'
p5222
I1
sS'3300006938'
p5223
I4
sS'3300006939'
p5224
I4
sS'3300006932'
p5225
I3
sS'3300006930'
p5226
I904
sS'3300006931'
p5227
I3
sS'3300006937'
p5228
I5
sS'3300006934'
p5229
I1
sS'3300006935'
p5230
I1
sS'3300008575'
p5231
I65
sS'3300008570'
p5232
I8
sS'2018235000'
p5233
I4
sS'3300008572'
p5234
I2
sS'7000000269'
p5235
I6
sS'7000000268'
p5236
I51
sS'7000000263'
p5237
I3
sS'7000000262'
p5238
I66
sS'7000000261'
p5239
I75
sS'7000000260'
p5240
I80
sS'7000000267'
p5241
I25
sS'7000000266'
p5242
I4
sS'7000000265'
p5243
I178
sS'7000000264'
p5244
I36
sS'7000000198'
p5245
I13
sS'7000000195'
p5246
I73
sS'7000000194'
p5247
I57
sS'7000000197'
p5248
I69
sS'3300001466'
p5249
I1
sS'3300001461'
p5250
I7
sS'3300001460'
p5251
I13
sS'7000000193'
p5252
I149
sS'7000000192'
p5253
I89
sS'3300007589'
p5254
I1
sS'3300003827'
p5255
I6
sS'3300003826'
p5256
I14
sS'3300003825'
p5257
I33
sS'3300003824'
p5258
I15
sS'3300003823'
p5259
I12
sS'3300003821'
p5260
I3
sS'3300003820'
p5261
I7
sS'3300003829'
p5262
I6
sS'3300003828'
p5263
I9
sS'3300001681'
p5264
I60
sS'3300001680'
p5265
I118
sS'3300001683'
p5266
I422
sS'3300001685'
p5267
I392
sS'3300001684'
p5268
I30
sS'3300001687'
p5269
I516
sS'3300001686'
p5270
I807
sS'3300001689'
p5271
I1
sS'3300007607'
p5272
I5
sS'3300004240'
p5273
I454
sS'7000000555'
p5274
I2
sS'3300007606'
p5275
I309
sS'3300004241'
p5276
I762
sS'3300007605'
p5277
I5
sS'3300004246'
p5278
I19
sS'3300000333'
p5279
I189
sS'3300000330'
p5280
I27
sS'3300000331'
p5281
I86
sS'3300000488'
p5282
I14
sS'3300000489'
p5283
I14
sS'3300004309'
p5284
I13
sS'3300004308'
p5285
I8
sS'3300004307'
p5286
I1
sS'3300004306'
p5287
I5
sS'3300004657'
p5288
I4
sS'3300004304'
p5289
I4
sS'3300004651'
p5290
I2
sS'3300004650'
p5291
I5
sS'3300004653'
p5292
I1
sS'3300000483'
p5293
I5
sS'3300003351'
p5294
I32
sS'3300003350'
p5295
I50
sS'3300007300'
p5296
I69
sS'3300003352'
p5297
I44
sS'3300007306'
p5298
I29
sS'3300003354'
p5299
I119
sS'3300007304'
p5300
I32
sS'3300007305'
p5301
I57
sS'3300007654'
p5302
I102
sS'3300003358'
p5303
I39
sS'3300007309'
p5304
I41
sS'3300007650'
p5305
I47
sS'3300007651'
p5306
I156
sS'3300007652'
p5307
I32
sS'3300007653'
p5308
I152
sS'3300006367'
p5309
I2
sS'3300006657'
p5310
I78
sS'3300006656'
p5311
I11
sS'3300006655'
p5312
I44
sS'3300006654'
p5313
I100
sS'3300006653'
p5314
I65
sS'3300006652'
p5315
I111
sS'3300006651'
p5316
I80
sS'3300006650'
p5317
I61
sS'3300004244'
p5318
I12
sS'3300007669'
p5319
I98
sS'3300006659'
p5320
I73
sS'3300006658'
p5321
I80
sS'3300000156'
p5322
I477
sS'3300000157'
p5323
I43
sS'3300000154'
p5324
I73
sS'3300000155'
p5325
I13
sS'3300000152'
p5326
I59
sS'3300000153'
p5327
I84
sS'3300000150'
p5328
I44
sS'3300000151'
p5329
I87
sS'3300000158'
p5330
I88
sS'3300000159'
p5331
I55
sS'3300003177'
p5332
I56
sS'3300003176'
p5333
I1
sS'3300003171'
p5334
I1
sS'3300003172'
p5335
I6
sS'3300004245'
p5336
I26
sS'3300007668'
p5337
I257
sS'3300003178'
p5338
I74
sS'3300002889'
p5339
I9
sS'3300002886'
p5340
I63
sS'3300002884'
p5341
I5
sS'3300002885'
p5342
I1
sS'3300002882'
p5343
I44
sS'3300002883'
p5344
I6
sS'3300002880'
p5345
I3
sS'3300002881'
p5346
I7
sS'2077657004'
p5347
I4
sS'2077657000'
p5348
I2
sS'2077657001'
p5349
I2
sS'2077657002'
p5350
I1
sS'2077657009'
p5351
I1
sS'3300002085'
p5352
I5
sS'7000000176'
p5353
I66
sS'3300003689'
p5354
I5
sS'3300003688'
p5355
I70
sS'3300003683'
p5356
I10
sS'3300003682'
p5357
I11
sS'3300003681'
p5358
I12
sS'3300006621'
p5359
I126
sS'3300003687'
p5360
I5
sS'3300003686'
p5361
I4
sS'3300003684'
p5362
I13
sS'3300002558'
p5363
I305
sS'3300002559'
p5364
I48
sS'3300002228'
p5365
I26
sS'3300002229'
p5366
I18
sS'3300002550'
p5367
I149
sS'3300002551'
p5368
I92
sS'3300002552'
p5369
I514
sS'3300002553'
p5370
I43
sS'3300002226'
p5371
I44
sS'3300002555'
p5372
I3
sS'3300002556'
p5373
I3
sS'3300002557'
p5374
I55
sS'3300006626'
p5375
I25
sS'3300005689'
p5376
I6
sS'3300005688'
p5377
I3
sS'3300005685'
p5378
I1
sS'3300005686'
p5379
I6
sS'3300005680'
p5380
I15
sS'3300005683'
p5381
I1
sS'3300009106'
p5382
I327
sS'2199034002'
p5383
I69
sS'3300005029'
p5384
I101
sS'3300005028'
p5385
I82
sS'3300005021'
p5386
I71
sS'3300005020'
p5387
I81
sS'3300005023'
p5388
I75
sS'3300005022'
p5389
I61
sS'3300005025'
p5390
I94
sS'3300005024'
p5391
I88
sS'3300005027'
p5392
I117
sS'3300005026'
p5393
I110
sS'3300008969'
p5394
I2
sS'3300008968'
p5395
I2
sS'3300008967'
p5396
I3
sS'3300008966'
p5397
I21
sS'3300008965'
p5398
I3
sS'3300008964'
p5399
I277
sS'3300008963'
p5400
I134
sS'3300008962'
p5401
I30
sS'3300008961'
p5402
I314
sS'3300008960'
p5403
I172
sS'3300001854'
p5404
I1227
sS'3300001855'
p5405
I215
sS'7000000034'
p5406
I8
sS'7000000035'
p5407
I1
sS'7000000032'
p5408
I75
sS'7000000033'
p5409
I33
sS'3300001853'
p5410
I11
sS'7000000528'
p5411
I16
sS'7000000529'
p5412
I4
sS'3300006301'
p5413
I51
sS'7000000039'
p5414
I39
sS'3300006300'
p5415
I1
sS'3300007269'
p5416
I63
sS'3300008267'
p5417
I28
sS'3300007268'
p5418
I14
sS'3300007265'
p5419
I731
sS'3300007264'
p5420
I4
sS'3300008219'
p5421
I71
sS'3300008218'
p5422
I89
sS'3300008211'
p5423
I10
sS'3300008210'
p5424
I2
sS'3300008213'
p5425
I15
sS'3300008212'
p5426
I23
sS'3300008215'
p5427
I8
sS'3300008214'
p5428
I14
sS'3300008217'
p5429
I110
sS'3300008216'
p5430
I96
sS'3300002161'
p5431
I80
sS'3300002160'
p5432
I78
sS'3300002163'
p5433
I267
sS'3300006877'
p5434
I4
sS'3300002162'
p5435
I174
sS'3300002515'
p5436
I285
sS'3300002165'
p5437
I8
sS'3300006689'
p5438
I6
sS'3300001807'
p5439
I6
sS'3300007469'
p5440
I6
sS'3300007468'
p5441
I8
sS'3300002167'
p5442
I189
sS'2189573029'
p5443
I54
sS'3300001806'
p5444
I2
sS'2189573027'
p5445
I18
sS'3300006873'
p5446
I36
sS'2189573025'
p5447
I29
sS'2189573024'
p5448
I19
sS'2189573023'
p5449
I14
sS'2189573022'
p5450
I284
sS'2189573021'
p5451
I12
sS'3300002511'
p5452
I12
sS'3300002169'
p5453
I18
sS'3300001148'
p5454
I38
sS'3300001149'
p5455
I34
sS'3300006685'
p5456
I7
sS'3300001140'
p5457
I5
sS'3300001141'
p5458
I3
sS'3300006138'
p5459
I113
sS'3300001144'
p5460
I3
sS'3300001145'
p5461
I13
sS'3300004848'
p5462
I31
sS'3300004849'
p5463
I21
sS'3300004518'
p5464
I7
sS'3300004519'
p5465
I1
sS'3300000818'
p5466
I1
sS'3300004840'
p5467
I27
sS'3300004841'
p5468
I20
sS'3300004510'
p5469
I1
sS'3300004843'
p5470
I32
sS'3300004844'
p5471
I21
sS'3300004845'
p5472
I31
sS'3300004846'
p5473
I31
sS'3300004847'
p5474
I30
sS'3300007799'
p5475
I948
sS'3300007798'
p5476
I41
sS'3300007795'
p5477
I35
sS'3300007794'
p5478
I96
sS'3300007797'
p5479
I42
sS'3300007796'
p5480
I74
sS'3300007791'
p5481
I100
sS'3300007790'
p5482
I1356
sS'3300007793'
p5483
I55
sS'3300007792'
p5484
I9
sS'7000000579'
p5485
I132
sS'2100351014'
p5486
I3
sS'2100351016'
p5487
I17
sS'2100351011'
p5488
I60
sS'2100351010'
p5489
I43
sS'2100351012'
p5490
I32
sS'3300004721'
p5491
I11
sS'3300004720'
p5492
I9
sS'3300004723'
p5493
I6
sS'3300004722'
p5494
I13
sS'3300004725'
p5495
I7
sS'3300004096'
p5496
I225
sS'3300004727'
p5497
I17
sS'3300006506'
p5498
I3
sS'3300004726'
p5499
I8
sS'3300006228'
p5500
I2
sS'3300006229'
p5501
I8
sS'3300006226'
p5502
I1713
sS'3300006227'
p5503
I2
sS'3300006224'
p5504
I4597
sS'3300006225'
p5505
I25
sS'3300006222'
p5506
I39
sS'3300006223'
p5507
I16
sS'3300006220'
p5508
I27
sS'3300006221'
p5509
I12
sS'3300004098'
p5510
I1
sS'3300009029'
p5511
I1064
sS'3300009028'
p5512
I7
sS'3300009025'
p5513
I7
sS'3300009024'
p5514
I353
sS'3300009027'
p5515
I313
sS'3300009026'
p5516
I210
sS'3300009021'
p5517
I478
sS'3300009020'
p5518
I1264
sS'3300009023'
p5519
I29
sS'3300009022'
p5520
I7
sS'3300003548'
p5521
I1
sS'3300003544'
p5522
I9
sS'3300003545'
p5523
I1
sS'3300003546'
p5524
I1
sS'3300003547'
p5525
I5
sS'3300003540'
p5526
I266
sS'3300003541'
p5527
I1989
sS'3300003542'
p5528
I396
sS'3300003543'
p5529
I421
sS'3300002760'
p5530
I4
sS'3300002949'
p5531
I34
sS'3300002948'
p5532
I48
sS'3300005234'
p5533
I18
sS'3300005235'
p5534
I366
sS'3300005236'
p5535
I417
sS'3300005237'
p5536
I199
sS'3300005233'
p5537
I38
sS'3300005238'
p5538
I57
sS'3300005239'
p5539
I714
sS'3300005293'
p5540
I433
sS'3300006687'
p5541
I7
sS'3300000350'
p5542
I66
sS'3300008772'
p5543
I4
sS'3300008773'
p5544
I5
sS'3300008770'
p5545
I3
sS'3300008771'
p5546
I1
sS'3300000354'
p5547
I34
sS'3300000355'
p5548
I45
sS'3300006918'
p5549
I1004
sS'3300006919'
p5550
I16
sS'3300006914'
p5551
I1225
sS'3300006915'
p5552
I35
sS'3300006916'
p5553
I22
sS'3300006917'
p5554
I295
sS'3300006910'
p5555
I244
sS'3300006911'
p5556
I166
sS'3300006912'
p5557
I1
sS'3300006913'
p5558
I14
sS'3300002305'
p5559
I11
sS'3300002304'
p5560
I29
sS'3300002307'
p5561
I18
sS'3300008516'
p5562
I830
sS'3300008517'
p5563
I1046
sS'3300008514'
p5564
I59
sS'3300008515'
p5565
I87
sS'3300008512'
p5566
I28
sS'3300008513'
p5567
I51
sS'3300008510'
p5568
I42
sS'3300008511'
p5569
I26
sS'3300002301'
p5570
I14
sS'3300008518'
p5571
I65
sS'3300002300'
p5572
I4
sS'7000000209'
p5573
I3
sS'3300002303'
p5574
I9
sS'7000000205'
p5575
I25
sS'7000000204'
p5576
I7
sS'7000000207'
p5577
I55
sS'3300002302'
p5578
I13
sS'7000000201'
p5579
I1
sS'7000000200'
p5580
I115
sS'7000000203'
p5581
I115
sS'7000000202'
p5582
I56
sS'2028778002'
p5583
I1
sS'2028778003'
p5584
I10
sS'3300001446'
p5585
I414
sS'3300001333'
p5586
I61
sS'3300001444'
p5587
I770
sS'3300001334'
p5588
I47
sS'3300001337'
p5589
I30
sS'3300001339'
p5590
I49
sS'3300001338'
p5591
I13
sS'3300001449'
p5592
I33
sS'3300006424'
p5593
I15
sS'3300006425'
p5594
I53
sS'3300004677'
p5595
I14
sS'3300004676'
p5596
I18
sS'3300004675'
p5597
I3
sS'3300004674'
p5598
I10
sS'3300004673'
p5599
I8
sS'3300004672'
p5600
I9
sS'3300004671'
p5601
I5
sS'3300004670'
p5602
I10
sS'3300007883'
p5603
I4
sS'3300004679'
p5604
I11
sS'3300004678'
p5605
I8
sS'3300007324'
p5606
I18
sS'3300007325'
p5607
I15
sS'3300007326'
p5608
I12
sS'3300007327'
p5609
I2
sS'3300007320'
p5610
I107
sS'3300007321'
p5611
I42
sS'3300007322'
p5612
I10
sS'3300007323'
p5613
I19
sS'3300007328'
p5614
I7
sS'3300007329'
p5615
I11
sS'3300007638'
p5616
I120
sS'3300007639'
p5617
I290
sS'3300007887'
p5618
I18
sS'3300007886'
p5619
I4
sS'3300000178'
p5620
I50
sS'3300000179'
p5621
I42
sS'3300000170'
p5622
I66
sS'3300000171'
p5623
I37
sS'3300000172'
p5624
I92
sS'3300000173'
p5625
I19
sS'3300000174'
p5626
I69
sS'3300000176'
p5627
I39
sS'3300000177'
p5628
I24
sS'3300003379'
p5629
I9
sS'3300003373'
p5630
I187
sS'3300003372'
p5631
I13
sS'3300003371'
p5632
I48
sS'3300003370'
p5633
I61
sS'3300003375'
p5634
I52
sS'3300003374'
p5635
I33
sS'2162886008'
p5636
I312
sS'2162886007'
p5637
I140
sS'3300003155'
p5638
I261
sS'3300003154'
p5639
I334
sS'3300003153'
p5640
I74
sS'3300003152'
p5641
I60
sS'3300003151'
p5642
I28
sS'3300003150'
p5643
I19
sS'3300008035'
p5644
I4
sS'3300002208'
p5645
I1
sS'3300002209'
p5646
I75
sS'3300002204'
p5647
I28
sS'3300002205'
p5648
I42
sS'7000000700'
p5649
I20
sS'7000000702'
p5650
I2
sS'7000000671'
p5651
I104
sS'7000000704'
p5652
I7
sS'7000000706'
p5653
I67
sS'7000000707'
p5654
I32
sS'3300005003'
p5655
I81
sS'3300005002'
p5656
I14
sS'3300005001'
p5657
I89
sS'3300005000'
p5658
I81
sS'3300005007'
p5659
I82
sS'3300005006'
p5660
I64
sS'3300005005'
p5661
I72
sS'3300005004'
p5662
I60
sS'3300005009'
p5663
I89
sS'3300005008'
p5664
I79
sS'3300008195'
p5665
I6
sS'3300004413'
p5666
I27
sS'3300008981'
p5667
I5
sS'3300008980'
p5668
I3
sS'3300008983'
p5669
I17
sS'3300008982'
p5670
I17
sS'3300008985'
p5671
I7
sS'3300008984'
p5672
I13
sS'3300008987'
p5673
I10
sS'3300008989'
p5674
I9
sS'3300008988'
p5675
I18
sS'3300004412'
p5676
I40
sS'7000000674'
p5677
I67
sS'3300008189'
p5678
I27
sS'3300005520'
p5679
I125
sS'3300005833'
p5680
I982
sS'3300008181'
p5681
I25
sS'3300008180'
p5682
I13
sS'3300008183'
p5683
I6
sS'3300008182'
p5684
I3
sS'3300005830'
p5685
I626
sS'3300008187'
p5686
I40
sS'3300008186'
p5687
I4
sS'3300005831'
p5688
I1007
sS'3300005836'
p5689
I1031
sS'3300005837'
p5690
I1919
sS'3300005526'
p5691
I446
sS'3300005527'
p5692
I339
sS'3300000787'
p5693
I283
sS'3300000786'
p5694
I39
sS'3300005529'
p5695
I2071
sS'3300000789'
p5696
I252
sS'3300008233'
p5697
I19
sS'3300008232'
p5698
I12
sS'3300008231'
p5699
I4
sS'3300008237'
p5700
I3
sS'3300008236'
p5701
I5
sS'3300008235'
p5702
I9
sS'7000000677'
p5703
I63
sS'3300008239'
p5704
I16
sS'3300008238'
p5705
I2
sS'7000000018'
p5706
I199
sS'7000000019'
p5707
I3
sS'7000000549'
p5708
I47
sS'3300001780'
p5709
I110
sS'3300001781'
p5710
I197
sS'3300001782'
p5711
I655
sS'3300001835'
p5712
I114
sS'3300001784'
p5713
I279
sS'7000000543'
p5714
I55
sS'3300001786'
p5715
I49
sS'3300001787'
p5716
I14
sS'3300007359'
p5717
I6
sS'3300008175'
p5718
I1
sS'3300003993'
p5719
I267
sS'3300007361'
p5720
I45
sS'3300007405'
p5721
I2
sS'3300007407'
p5722
I1
sS'3300007401'
p5723
I1
sS'3300007362'
p5724
I48
sS'3300005652'
p5725
I2
sS'3300007363'
p5726
I172
sS'3300001168'
p5727
I5
sS'3300001169'
p5728
I3
sS'3300001164'
p5729
I13
sS'3300001166'
p5730
I22
sS'3300001167'
p5731
I13
sS'3300001160'
p5732
I10
sS'3300001161'
p5733
I1
sS'3300001162'
p5734
I6
sS'3300004538'
p5735
I11
sS'3300004539'
p5736
I12
sS'3300004534'
p5737
I12
sS'3300004535'
p5738
I8
sS'3300004536'
p5739
I10
sS'3300004537'
p5740
I14
sS'3300004530'
p5741
I9
sS'3300004531'
p5742
I11
sS'3300004532'
p5743
I12
sS'3300004533'
p5744
I10
sS'3300005654'
p5745
I161
sS'3300005655'
p5746
I498
sS'3300006011'
p5747
I259
sS'3300002066'
p5748
I451
sS'3300006012'
p5749
I265
sS'3300002060'
p5750
I61
sS'3300002439'
p5751
I1
sS'3300002061'
p5752
I61
sS'3300006545'
p5753
I28
sS'3300006016'
p5754
I19
sS'3300006752'
p5755
I34
sS'3300006201'
p5756
I23
sS'3300006750'
p5757
I18
sS'3300006751'
p5758
I23
sS'3300006204'
p5759
I32
sS'3300006754'
p5760
I47
sS'3300007013'
p5761
I24
sS'3300006209'
p5762
I9
sS'3300009007'
p5763
I17
sS'3300009006'
p5764
I16
sS'3300009005'
p5765
I23
sS'3300009004'
p5766
I220
sS'3300009003'
p5767
I284
sS'3300009002'
p5768
I218
sS'3300009001'
p5769
I264
sS'3300009000'
p5770
I284
sS'3300003513'
p5771
I22
sS'3300009009'
p5772
I1255
sS'3300009008'
p5773
I292
sS'7000000610'
p5774
I4
sS'3300003523'
p5775
I1208
sS'3300003521'
p5776
I1
sS'3300004756'
p5777
I7
sS'3300003510'
p5778
I20
sS'3300003528'
p5779
I2
sS'7000000611'
p5780
I54
sS'3300002925'
p5781
I79
sS'3300002924'
p5782
I156
sS'3300002927'
p5783
I180
sS'3300002926'
p5784
I61
sS'3300002921'
p5785
I133
sS'3300002920'
p5786
I68
sS'3300002923'
p5787
I171
sS'3300002922'
p5788
I90
sS'3300002928'
p5789
I119
sS'3300004625'
p5790
I75
sS'3300004627'
p5791
I11
sS'3300004620'
p5792
I33
sS'3300004622'
p5793
I67
sS'3300008754'
p5794
I38
sS'3300008755'
p5795
I59
sS'3300008756'
p5796
I36
sS'3300008757'
p5797
I17
sS'3300008750'
p5798
I46
sS'3300008751'
p5799
I14
sS'3300008752'
p5800
I7
sS'3300008753'
p5801
I2
sS'7000000615'
p5802
I56
sS'3300008758'
p5803
I5
sS'3300008759'
p5804
I6
sS'3300006976'
p5805
I3
sS'3300006977'
p5806
I1
sS'3300006975'
p5807
I1
sS'3300006972'
p5808
I235
sS'3300006973'
p5809
I1
sS'3300006970'
p5810
I2
sS'3300006971'
p5811
I1
sS'2013515001'
p5812
I8
sS'2013515000'
p5813
I12
sS'3300006979'
p5814
I14
sS'3300005258'
p5815
I61
sS'3300005259'
p5816
I346
sS'3300005256'
p5817
I15
sS'3300005257'
p5818
I12
sS'3300005254'
p5819
I1352
sS'3300005255'
p5820
I13
sS'3300005252'
p5821
I939
sS'3300005253'
p5822
I133
sS'3300005250'
p5823
I16
sS'3300005251'
p5824
I16
sS'7000000010'
p5825
I24
sS'3300008530'
p5826
I11
sS'3300008531'
p5827
I3
sS'3300008532'
p5828
I8
sS'3300008533'
p5829
I2
sS'3300008534'
p5830
I30
sS'3300008537'
p5831
I80
sS'7000000011'
p5832
I61
sS'7000000226'
p5833
I98
sS'7000000225'
p5834
I43
sS'7000000224'
p5835
I79
sS'7000000223'
p5836
I8
sS'7000000222'
p5837
I95
sS'7000000221'
p5838
I24
sS'7000000220'
p5839
I4
sS'7000000228'
p5840
I124
sS'3300000357'
p5841
I107
sS'3300001319'
p5842
I1
sS'3300004659'
p5843
I2
sS'3300004658'
p5844
I5
sS'7000000483'
p5845
I16
sS'7000000482'
p5846
I91
sS'7000000481'
p5847
I102
sS'7000000480'
p5848
I79
sS'7000000487'
p5849
I5
sS'7000000486'
p5850
I73
sS'7000000484'
p5851
I98
sS'7000000488'
p5852
I25
sS'2170459019'
p5853
I141
sS'2170459018'
p5854
I40
sS'2170459015'
p5855
I104
sS'2170459014'
p5856
I73
sS'2170459017'
p5857
I123
sS'2170459016'
p5858
I85
sS'2170459011'
p5859
I49
sS'2170459010'
p5860
I118
sS'2170459013'
p5861
I51
sS'2170459012'
p5862
I59
sS'3300000378'
p5863
I1
sS'3300000379'
p5864
I1
sS'3300000374'
p5865
I190
sS'3300000375'
p5866
I3
sS'3300000371'
p5867
I9
sS'3300000192'
p5868
I90
sS'3300000193'
p5869
I49
sS'3300000190'
p5870
I50
sS'3300000196'
p5871
I9
sS'3300000197'
p5872
I30
sS'3300000194'
p5873
I21
sS'3300000195'
p5874
I41
sS'3300000198'
p5875
I121
sS'3300000199'
p5876
I29
sS'3300000999'
p5877
I6
sS'3300000994'
p5878
I1
sS'3300000995'
p5879
I7
sS'2081372009'
p5880
I23
sS'2081372008'
p5881
I73
sS'2081372005'
p5882
I36
sS'2081372004'
p5883
I18
sS'2081372007'
p5884
I7
sS'2081372006'
p5885
I19
sS'2081372001'
p5886
I10
sS'2081372003'
p5887
I15
sS'3300007618'
p5888
I306
sS'3300007619'
p5889
I367
sS'3300007348'
p5890
I73
sS'3300007349'
p5891
I7
sS'3300003315'
p5892
I205
sS'3300003314'
p5893
I82
sS'3300003317'
p5894
I32
sS'3300007345'
p5895
I72
sS'3300003311'
p5896
I70
sS'3300007343'
p5897
I5
sS'3300003313'
p5898
I189
sS'3300003312'
p5899
I207
sS'3300002042'
p5900
I341
sS'3300006568'
p5901
I64
sS'3300002040'
p5902
I1454
sS'3300006561'
p5903
I3
sS'3300006560'
p5904
I1
sS'3300006563'
p5905
I56
sS'3300006562'
p5906
I2
sS'3300006565'
p5907
I114
sS'3300006564'
p5908
I111
sS'3300006567'
p5909
I254
sS'3300006566'
p5910
I167
sS'3300002596'
p5911
I3
sS'3300002597'
p5912
I722
sS'3300002591'
p5913
I3
sS'3300002598'
p5914
I3
sS'3300002269'
p5915
I3
sS'3300007968'
p5916
I100
sS'3300007969'
p5917
I59
sS'3300007962'
p5918
I234
sS'3300007963'
p5919
I15
sS'3300007960'
p5920
I17
sS'3300000256'
p5921
I67
sS'3300007966'
p5922
I136
sS'3300007967'
p5923
I44
sS'3300007964'
p5924
I222
sS'3300007965'
p5925
I252
sS'3300007357'
p5926
I117
sS'3300008424'
p5927
I2
sS'3300005064'
p5928
I68
sS'3300005067'
p5929
I158
sS'3300005066'
p5930
I113
sS'3300005061'
p5931
I29
sS'3300005060'
p5932
I34
sS'3300005063'
p5933
I44
sS'3300005062'
p5934
I86
sS'3300008890'
p5935
I12
sS'3300005069'
p5936
I12
sS'3300005068'
p5937
I180
sS'2209111002'
p5938
I33
sS'2209111003'
p5939
I55
sS'2209111000'
p5940
I80
sS'2209111001'
p5941
I2
sS'2209111006'
p5942
I38
sS'2209111007'
p5943
I39
sS'2209111004'
p5944
I6
sS'2209111005'
p5945
I14
sS'2209111009'
p5946
I39
sS'3300007132'
p5947
I33
sS'7000000447'
p5948
I53
sS'7000000446'
p5949
I28
sS'3300002640'
p5950
I7
sS'7000000445'
p5951
I15
sS'3300006942'
p5952
I29
sS'7000000444'
p5953
I120
sS'7000000443'
p5954
I119
sS'3300002643'
p5955
I12
sS'7000000442'
p5956
I67
sS'7000000441'
p5957
I68
sS'7000000524'
p5958
I46
sS'7000000440'
p5959
I64
sS'3300008255'
p5960
I151
sS'3300008254'
p5961
I405
sS'3300008257'
p5962
I5
sS'3300008256'
p5963
I11
sS'3300008251'
p5964
I493
sS'3300008250'
p5965
I342
sS'3300008253'
p5966
I634
sS'3300008252'
p5967
I560
sS'3300008259'
p5968
I138
sS'3300008258'
p5969
I28
sS'3300001810'
p5970
I15
sS'3300001763'
p5971
I57
sS'3300001812'
p5972
I28
sS'3300001813'
p5973
I114
sS'3300001766'
p5974
I5
sS'3300001767'
p5975
I12
sS'7000000566'
p5976
I4
sS'3300001765'
p5977
I70
sS'7000000568'
p5978
I72
sS'3300000857'
p5979
I5
sS'3300001768'
p5980
I59
sS'3300001769'
p5981
I74
sS'3300004732'
p5982
I18
sS'3300004733'
p5983
I27
sS'3300004730'
p5984
I8
sS'3300004731'
p5985
I16
sS'3300004088'
p5986
I147
sS'3300004089'
p5987
I35
sS'3300004734'
p5988
I13
sS'3300004735'
p5989
I10
sS'3300004084'
p5990
I5
sS'3300004085'
p5991
I24
sS'3300004738'
p5992
I12
sS'3300004739'
p5993
I6
sS'3300004080'
p5994
I1083
sS'3300004081'
p5995
I1553
sS'3300004082'
p5996
I911
sS'3300000859'
p5997
I20
sS'3300007427'
p5998
I2
sS'3300005911'
p5999
I147
sS'3300000858'
p6000
I130
sS'3300007423'
p6001
I1
sS'3300007422'
p6002
I1
sS'3300007421'
p6003
I1
sS'3300007420'
p6004
I2
sS'3300005913'
p6005
I63
sS'3300007429'
p6006
I2
sS'3300001106'
p6007
I19
sS'3300001105'
p6008
I22
sS'3300001102'
p6009
I110
sS'3300001100'
p6010
I6
sS'3300001101'
p6011
I8
sS'3300005915'
p6012
I211
sS'3300001108'
p6013
I4
sS'3300005914'
p6014
I149
sS'3300004556'
p6015
I15
sS'3300004885'
p6016
I23
sS'3300004554'
p6017
I4
sS'3300004555'
p6018
I1
sS'3300004552'
p6019
I18
sS'3300004553'
p6020
I14
sS'3300004882'
p6021
I22
sS'3300004551'
p6022
I12
sS'3300005260'
p6023
I171
sS'3300004888'
p6024
I38
sS'3300004889'
p6025
I50
sS'3300004558'
p6026
I10
sS'3300004559'
p6027
I8
sS'3300007358'
p6028
I67
sS'3300007237'
p6029
I28
sS'3300007283'
p6030
I581
sS'3300007282'
p6031
I31
sS'3300007281'
p6032
I38
sS'3300007280'
p6033
I98
sS'3300007287'
p6034
I55
sS'3300007286'
p6035
I53
sS'3300007285'
p6036
I11
sS'3300007284'
p6037
I33
sS'3300007289'
p6038
I93
sS'3300007288'
p6039
I18
sS'7000000523'
p6040
I70
sS'3300007355'
p6041
I80
sS'3300005731'
p6042
I55
sS'3300005046'
p6043
I62
sS'3300005733'
p6044
I15
sS'3300003509'
p6045
I34
sS'3300005732'
p6046
I46
sS'3300003500'
p6047
I84
sS'3300003501'
p6048
I97
sS'3300003502'
p6049
I16
sS'3300003503'
p6050
I21
sS'3300003504'
p6051
I11
sS'3300003505'
p6052
I439
sS'3300003507'
p6053
I1
sS'3300005041'
p6054
I114
sS'3300005040'
p6055
I88
sS'3300000557'
p6056
I748
sS'3300002909'
p6057
I67
sS'3300002908'
p6058
I523
sS'3300002907'
p6059
I149
sS'3300006487'
p6060
I13
sS'3300006484'
p6061
I115
sS'3300002903'
p6062
I6
sS'3300002902'
p6063
I2
sS'3300002901'
p6064
I2
sS'3300002900'
p6065
I42
sS'3300000558'
p6066
I793
sS'3300000559'
p6067
I437
sS'3300008888'
p6068
I4
sS'3300008889'
p6069
I11
sS'3300008738'
p6070
I140
sS'3300008739'
p6071
I75
sS'3300008736'
p6072
I49
sS'3300008737'
p6073
I23
sS'3300008734'
p6074
I76
sS'3300008735'
p6075
I269
sS'3300008732'
p6076
I28
sS'3300008733'
p6077
I21
sS'3300008730'
p6078
I74
sS'3300008731'
p6079
I4
sS'3300006958'
p6080
I1
sS'3300006959'
p6081
I2
sS'3300000036'
p6082
I41
sS'3300006950'
p6083
I775
sS'3300006951'
p6084
I13
sS'3300006952'
p6085
I809
sS'3300006953'
p6086
I485
sS'3300006954'
p6087
I1603
sS'3300002674'
p6088
I1
sS'3300006957'
p6089
I27
sS'3300005270'
p6090
I23
sS'3300005271'
p6091
I4
sS'3300005900'
p6092
I78
sS'3300005273'
p6093
I11
sS'3300005274'
p6094
I28
sS'3300005275'
p6095
I97
sS'3300005276'
p6096
I13
sS'3300005277'
p6097
I17
sS'3300005278'
p6098
I101
sS'3300005279'
p6099
I127
sS'3300005909'
p6100
I133
sS'3300008080'
p6101
I118
sS'3300008081'
p6102
I114
sS'3300008082'
p6103
I107
sS'3300008083'
p6104
I61
sS'3300008084'
p6105
I14
sS'3300008085'
p6106
I268
sS'3300008086'
p6107
I323
sS'3300008089'
p6108
I182
sS'3300007996'
p6109
I124
sS'3300006152'
p6110
I57
sS'3300004219'
p6111
I21
sS'3300008886'
p6112
I196
sS'3300000032'
p6113
I419
sS'3300001374'
p6114
I3
sS'3300001377'
p6115
I78
sS'3300001376'
p6116
I68
sS'3300001371'
p6117
I765
sS'3300001370'
p6118
I1
sS'3300001373'
p6119
I235
sS'3300001372'
p6120
I158
sS'3300006156'
p6121
I2
sS'3300000487'
p6122
I6
sS'7000000744'
p6123
I17
sS'7000000609'
p6124
I70
sS'7000000608'
p6125
I54
sS'3300000480'
p6126
I1
sS'7000000601'
p6127
I1
sS'7000000600'
p6128
I75
sS'3300001593'
p6129
I941
sS'3300001592'
p6130
I81
sS'7000000605'
p6131
I73
sS'7000000604'
p6132
I46
sS'7000000607'
p6133
I7
sS'3300001596'
p6134
I17
sS'3300000422'
p6135
I26
sS'3300000351'
p6136
I31
sS'3300000352'
p6137
I29
sS'3300000353'
p6138
I87
sS'3300000426'
p6139
I107
sS'3300000427'
p6140
I9
sS'3300000356'
p6141
I40
sS'3300000425'
p6142
I50
sS'3300000358'
p6143
I17
sS'3300000359'
p6144
I43
sS'7000000565'
p6145
I39
sS'3300000482'
p6146
I74
sS'7000000740'
p6147
I73
sS'7000000741'
p6148
I44
sS'3300004949'
p6149
I66
sS'3300004948'
p6150
I82
sS'3300004941'
p6151
I39
sS'3300004940'
p6152
I62
sS'3300004943'
p6153
I51
sS'3300004942'
p6154
I127
sS'3300004945'
p6155
I67
sS'3300004944'
p6156
I61
sS'3300004947'
p6157
I68
sS'3300004946'
p6158
I90
sS'3300003337'
p6159
I3
sS'3300003992'
p6160
I238
sS'3300003991'
p6161
I177
sS'3300003990'
p6162
I326
sS'3300003997'
p6163
I222
sS'3300003996'
p6164
I304
sS'3300003331'
p6165
I29
sS'3300003330'
p6166
I29
sS'3300007368'
p6167
I129
sS'3300003999'
p6168
I277
sS'3300003998'
p6169
I253
sS'3300003338'
p6170
I5
sS'3300002064'
p6171
I98
sS'3300002065'
p6172
I65
sS'3300006013'
p6173
I337
sS'3300002067'
p6174
I227
sS'3300006015'
p6175
I31
sS'3300006014'
p6176
I27
sS'3300002062'
p6177
I85
sS'3300002063'
p6178
I55
sS'3300006019'
p6179
I284
sS'3300006018'
p6180
I21
sS'3300002068'
p6181
I637
sS'3300002069'
p6182
I512
sS'7000000561'
p6183
I36
sS'3300007948'
p6184
I1
sS'3300007949'
p6185
I10
sS'3300007946'
p6186
I3
sS'3300007940'
p6187
I43
sS'3300007941'
p6188
I2
sS'3300007942'
p6189
I6
sS'3300007943'
p6190
I2
sS'2006207004'
p6191
I22
sS'7000000420'
p6192
I9
sS'7000000563'
p6193
I48
sS'3300005595'
p6194
I89
sS'3300005594'
p6195
I344
sS'3300005597'
p6196
I104
sS'3300005596'
p6197
I129
sS'3300005591'
p6198
I849
sS'3300005590'
p6199
I1021
sS'3300005593'
p6200
I344
sS'3300005592'
p6201
I128
sS'3300005599'
p6202
I47
sS'3300005598'
p6203
I1047
sS'7000000423'
p6204
I1
sS'7000000564'
p6205
I52
sS'3300002240'
p6206
I9
sS'3300002241'
p6207
I1
sS'3300002242'
p6208
I490
sS'3300002243'
p6209
I337
sS'3300002244'
p6210
I85
sS'3300002245'
p6211
I1707
sS'3300002247'
p6212
I13
sS'3300005739'
p6213
I288
sS'3300005738'
p6214
I17
sS'3300005049'
p6215
I81
sS'3300005048'
p6216
I95
sS'3300005047'
p6217
I69
sS'3300005730'
p6218
I69
sS'3300005045'
p6219
I273
sS'3300005044'
p6220
I66
sS'3300005043'
p6221
I181
sS'3300005042'
p6222
I114
sS'3300005737'
p6223
I41
sS'3300005736'
p6224
I56
sS'2209111020'
p6225
I26
sS'2209111021'
p6226
I16
sS'2209111022'
p6227
I21
sS'7000000424'
p6228
I2
sS'7000000477'
p6229
I2
sS'3300008625'
p6230
I232
sS'3300007522'
p6231
I209
sS'3300007523'
p6232
I287
sS'3300007520'
p6233
I243
sS'3300007521'
p6234
I1443
sS'3300007254'
p6235
I11
sS'3300007527'
p6236
I116
sS'3300007524'
p6237
I78
sS'3300008279'
p6238
I75
sS'3300008278'
p6239
I86
sS'3300008277'
p6240
I19
sS'3300008276'
p6241
I101
sS'3300008275'
p6242
I105
sS'3300008274'
p6243
I53
sS'3300008273'
p6244
I143
sS'3300008272'
p6245
I126
sS'3300008271'
p6246
I178
sS'3300008270'
p6247
I39
sS'3300002503'
p6248
I223
sS'3300002502'
p6249
I943
sS'3300002501'
p6250
I158
sS'3300001744'
p6251
I8
sS'3300001294'
p6252
I4
sS'3300001740'
p6253
I17
sS'3300001293'
p6254
I2
sS'3300001290'
p6255
I10
sS'3300001291'
p6256
I9
sS'3300002507'
p6257
I21
sS'3300001748'
p6258
I13
sS'3300001749'
p6259
I521
sS'3300002506'
p6260
I1
sS'3300004714'
p6261
I7
sS'3300004715'
p6262
I9
sS'3300004716'
p6263
I4
sS'3300004717'
p6264
I10
sS'3300004710'
p6265
I9
sS'3300004711'
p6266
I5
sS'3300004712'
p6267
I4
sS'3300004713'
p6268
I4
sS'3300006885'
p6269
I73
sS'3300004718'
p6270
I10
sS'3300004719'
p6271
I12
sS'3300006122'
p6272
I59
sS'3300006697'
p6273
I16
sS'3300002509'
p6274
I96
sS'3300002151'
p6275
I179
sS'3300001129'
p6276
I4
sS'3300006889'
p6277
I18
sS'3300002152'
p6278
I84
sS'3300001120'
p6279
I1
sS'3300001121'
p6280
I12
sS'3300001122'
p6281
I10
sS'3300001123'
p6282
I17
sS'3300001124'
p6283
I10
sS'3300001125'
p6284
I20
sS'3300001126'
p6285
I9
sS'3300001127'
p6286
I31
sS'3300001741'
p6287
I3
sS'3300001742'
p6288
I15
sS'3300001743'
p6289
I11
sS'3300007273'
p6290
I82
sS'3300003298'
p6291
I5
sS'3300003291'
p6292
I1
sS'3300003293'
p6293
I6
sS'3300003295'
p6294
I7
sS'3300003296'
p6295
I11
sS'3300003297'
p6296
I8
sS'3300006718'
p6297
I49
sS'3300006719'
p6298
I34
sS'3300006716'
p6299
I29
sS'3300006717'
p6300
I16
sS'3300006714'
p6301
I3
sS'3300006715'
p6302
I21
sS'3300006712'
p6303
I8
sS'3300006713'
p6304
I23
sS'3300006710'
p6305
I14
sS'3300006711'
p6306
I17
sS'3300000659'
p6307
I1
sS'3300000658'
p6308
I1
sS'2065487000'
p6309
I44
sS'2065487001'
p6310
I34
sS'2065487006'
p6311
I11
sS'2065487007'
p6312
I21
sS'2065487005'
p6313
I23
sS'3300000651'
p6314
I26
sS'3300000650'
p6315
I13
sS'2065487008'
p6316
I19
sS'3300000652'
p6317
I19
sS'3300000655'
p6318
I112
sS'3300004575'
p6319
I22
sS'3300004576'
p6320
I13
sS'3300004577'
p6321
I16
sS'3300003078'
p6322
I1
sS'3300003079'
p6323
I1
sS'3300007001'
p6324
I2
sS'3300007000'
p6325
I9
sS'3300003077'
p6326
I2
sS'3300007005'
p6327
I1
sS'3300007004'
p6328
I1888
sS'3300007007'
p6329
I1
sS'3300003073'
p6330
I1
sS'3300008956'
p6331
I42
sS'3300008957'
p6332
I18
sS'3300008954'
p6333
I148
sS'3300008952'
p6334
I182
sS'3300008953'
p6335
I7
sS'3300008950'
p6336
I288
sS'3300008951'
p6337
I13
sS'3300008710'
p6338
I1
sS'3300004390'
p6339
I64
sS'3300008712'
p6340
I53
sS'3300008713'
p6341
I5
sS'3300008714'
p6342
I20
sS'3300008715'
p6343
I76
sS'3300008716'
p6344
I98
sS'3300000346'
p6345
I19
sS'3300008719'
p6346
I1
sS'3300004392'
p6347
I90
sS'3300004394'
p6348
I106
sS'3300002658'
p6349
I1
sS'3300004395'
p6350
I54
sS'3300000341'
p6351
I29
sS'3300000340'
p6352
I24
sS'3300000439'
p6353
I137
sS'3300005926'
p6354
I11
sS'3300005927'
p6355
I5
sS'3300005920'
p6356
I668
sS'3300005921'
p6357
I997
sS'3300005928'
p6358
I12
sS'3300005929'
p6359
I15
sS'2222084006'
p6360
I36
sS'2222084004'
p6361
I16
sS'2222084005'
p6362
I112
sS'2222084002'
p6363
I2
sS'3300007336'
p6364
I20
sS'2222084003'
p6365
I19
sS'2084038021'
p6366
I45
sS'2084038020'
p6367
I6
sS'2222084000'
p6368
I30
sS'2222084001'
p6369
I19
sS'3300001357'
p6370
I288
sS'3300001356'
p6371
I541
sS'3300001355'
p6372
I241
sS'3300001354'
p6373
I223
sS'3300001353'
p6374
I184
sS'3300001352'
p6375
I357
sS'3300001351'
p6376
I166
sS'3300001359'
p6377
I35
sS'7000000623'
p6378
I18
sS'7000000622'
p6379
I41
sS'7000000621'
p6380
I10
sS'7000000620'
p6381
I2
sS'7000000627'
p6382
I29
sS'7000000626'
p6383
I72
sS'7000000625'
p6384
I32
sS'7000000624'
p6385
I91
sS'7000000629'
p6386
I2
sS'7000000628'
p6387
I87
sS'2070309005'
p6388
I2
sS'2070309004'
p6389
I39
sS'2070309003'
p6390
I87
sS'2070309002'
p6391
I23
sS'2070309001'
p6392
I7
sS'2070309000'
p6393
I5
sS'2070309009'
p6394
I48
sS'3300004387'
p6395
I59
sS'3300000405'
p6396
I23
sS'3300004385'
p6397
I75
sS'3300004384'
p6398
I78
sS'3300000400'
p6399
I39
sS'3300000401'
p6400
I41
sS'3300004381'
p6401
I63
sS'3300004380'
p6402
I62
sS'3300000408'
p6403
I23
sS'3300000409'
p6404
I16
sS'3300004389'
p6405
I50
sS'3300004388'
p6406
I77
sS'3300004963'
p6407
I7
sS'3300004962'
p6408
I1
sS'3300004961'
p6409
I3
sS'3300004967'
p6410
I13
sS'3300004966'
p6411
I4
sS'3300004965'
p6412
I9
sS'3300004964'
p6413
I6
sS'3300004969'
p6414
I13
sS'3300004968'
p6415
I17
sS'3300001087'
p6416
I20
sS'2149837007'
p6417
I92
sS'3300001083'
p6418
I3
sS'3300006525'
p6419
I98
sS'3300006524'
p6420
I118
sS'3300006527'
p6421
I132
sS'3300006521'
p6422
I13
sS'3300006520'
p6423
I9
sS'3300006523'
p6424
I16
sS'3300006522'
p6425
I122
sS'3300008553'
p6426
I2
sS'3300008003'
p6427
I346
sS'3300006172'
p6428
I815
sS'3300008556'
p6429
I46
sS'3300008557'
p6430
I4
sS'2149837008'
p6431
I7
sS'3300008555'
p6432
I2
sS'3300007926'
p6433
I36
sS'3300007924'
p6434
I110
sS'3300007925'
p6435
I119
sS'3300007922'
p6436
I5
sS'3300007920'
p6437
I5
sS'3300007921'
p6438
I93
sS'3300007928'
p6439
I4
sS'3300007929'
p6440
I2
sS'3300006039'
p6441
I73
sS'3300006038'
p6442
I1596
sS'3300002009'
p6443
I17
sS'3300006033'
p6444
I1345
sS'3300006032'
p6445
I796
sS'3300006031'
p6446
I498
sS'3300006030'
p6447
I215
sS'3300006037'
p6448
I95
sS'3300006036'
p6449
I2
sS'3300006035'
p6450
I440
sS'3300006034'
p6451
I782
sS'3300003719'
p6452
I11
sS'3300003718'
p6453
I2
sS'3300003713'
p6454
I1
sS'3300003712'
p6455
I1
sS'3300003715'
p6456
I11
sS'3300003716'
p6457
I3
sS'7000000716'
p6458
I44
sS'7000000715'
p6459
I70
sS'7000000712'
p6460
I15
sS'3300005713'
p6461
I1737
sS'3300005712'
p6462
I783
sS'3300005711'
p6463
I19
sS'3300005717'
p6464
I151
sS'3300005716'
p6465
I3
sS'3300005715'
p6466
I17
sS'3300005714'
p6467
I13
sS'3300005719'
p6468
I1641
sS'3300005718'
p6469
I860
sS'3300007867'
p6470
I37
sS'3300007866'
p6471
I6
sS'3300007865'
p6472
I3
sS'3300005537'
p6473
I970
sS'3300005536'
p6474
I1752
sS'3300007864'
p6475
I112
sS'3300005535'
p6476
I1698
sS'3300005822'
p6477
I281
sS'3300005533'
p6478
I748
sS'3300005824'
p6479
I232
sS'3300005531'
p6480
I641
sS'3300007863'
p6481
I135
sS'3300005530'
p6482
I1501
sS'3300008293'
p6483
I1
sS'3300008295'
p6484
I2
sS'3300008294'
p6485
I5
sS'3300008299'
p6486
I112
sS'3300008298'
p6487
I6
sS'3300001728'
p6488
I24
sS'3300001729'
p6489
I31
sS'3300001726'
p6490
I15
sS'3300002334'
p6491
I304
sS'3300001724'
p6492
I30
sS'3300001725'
p6493
I47
sS'3300001722'
p6494
I73
sS'3300001723'
p6495
I63
sS'3300001720'
p6496
I5
sS'3300001721'
p6497
I13
sS'7000000546'
p6498
I56
sS'3300007861'
p6499
I52
sS'7000000547'
p6500
I1
sS'2065487002'
p6501
I39
sS'3300007860'
p6502
I24
sS'2065487003'
p6503
I22
sS'3300008160'
p6504
I130
sS'3300005316'
p6505
I17
sS'3300005315'
p6506
I2
sS'3300005314'
p6507
I11
sS'3300005313'
p6508
I6
sS'3300005312'
p6509
I3
sS'3300004570'
p6510
I7
sS'3300005311'
p6511
I6
sS'3300004571'
p6512
I9
sS'3300005310'
p6513
I2
sS'3300004572'
p6514
I7
sS'2199352009'
p6515
I20
sS'2065487009'
p6516
I18
sS'2199352008'
p6517
I123
sS'3300004574'
p6518
I16
sS'3300004778'
p6519
I727
sS'3300004779'
p6520
I504
sS'3300004776'
p6521
I195
sS'3300004777'
p6522
I94
sS'3300004774'
p6523
I224
sS'3300004775'
p6524
I162
sS'3300004772'
p6525
I235
sS'3300004773'
p6526
I177
sS'3300004770'
p6527
I79
sS'3300000090'
p6528
I254
sS'3300003272'
p6529
I79
sS'3300003270'
p6530
I71
sS'3300003271'
p6531
I119
sS'3300003277'
p6532
I115
sS'3300006730'
p6533
I140
sS'3300006731'
p6534
I58
sS'3300006732'
p6535
I36
sS'3300006733'
p6536
I127
sS'3300006734'
p6537
I39
sS'3300006735'
p6538
I9
sS'3300006736'
p6539
I31
sS'3300006737'
p6540
I30
sS'3300006738'
p6541
I69
sS'3300006739'
p6542
I74
sS'3300004592'
p6543
I14
sS'3300004593'
p6544
I9
sS'3300004590'
p6545
I20
sS'3300000670'
p6546
I2
sS'3300000893'
p6547
I32
sS'3300004597'
p6548
I9
sS'3300000891'
p6549
I454
sS'3300000890'
p6550
I336
sS'3300000679'
p6551
I1
sS'3300004599'
p6552
I11
sS'3300000899'
p6553
I6
sS'3300000898'
p6554
I3
sS'3300007023'
p6555
I1
sS'3300007021'
p6556
I7
sS'3300007002'
p6557
I1
sS'3300007027'
p6558
I7
sS'3300007026'
p6559
I21
sS'3300007025'
p6560
I27
sS'3300007024'
p6561
I7
sS'3300007028'
p6562
I16
sS'7000000541'
p6563
I35
sS'7000000544'
p6564
I6
sS'3300007984'
p6565
I524
sS'3300005790'
p6566
I6
sS'3300006198'
p6567
I6
sS'3300006199'
p6568
I85
sS'3300006194'
p6569
I112
sS'3300006195'
p6570
I784
sS'3300006196'
p6571
I399
sS'3300006197'
p6572
I55
sS'3300006190'
p6573
I139
sS'3300006191'
p6574
I292
sS'3300006192'
p6575
I545
sS'3300006193'
p6576
I286
sS'3300002635'
p6577
I1
sS'3300006995'
p6578
I11
sS'3300006996'
p6579
I14
sS'3300006997'
p6580
I29
sS'3300006990'
p6581
I7
sS'3300006991'
p6582
I2
sS'3300006992'
p6583
I1
sS'3300006993'
p6584
I2
sS'3300006998'
p6585
I22
sS'3300006999'
p6586
I2
sS'3300005948'
p6587
I268
sS'3300005949'
p6588
I97
sS'3300005946'
p6589
I334
sS'3300005947'
p6590
I359
sS'3300005944'
p6591
I109
sS'3300005945'
p6592
I247
sS'3300005942'
p6593
I200
sS'3300005943'
p6594
I93
sS'3300005940'
p6595
I55
sS'3300005941'
p6596
I238
sS'3300007988'
p6597
I319
sS'7000000545'
p6598
I48
sS'2084038009'
p6599
I18
sS'2084038008'
p6600
I58
sS'3300007989'
p6601
I245
sS'2084038003'
p6602
I10
sS'2084038002'
p6603
I43
sS'2084038001'
p6604
I2
sS'2084038005'
p6605
I11
sS'3300005368'
p6606
I1
sS'3300005362'
p6607
I176
sS'3300005363'
p6608
I353
sS'3300005360'
p6609
I1
sS'3300005361'
p6610
I84
sS'3300005366'
p6611
I1578
sS'3300005367'
p6612
I1730
sS'3300005364'
p6613
I1403
sS'3300005365'
p6614
I1022
sS'3300008598'
p6615
I1
sS'3300008599'
p6616
I50
sS'3300008594'
p6617
I79
sS'3300008593'
p6618
I18
sS'7000000393'
p6619
I85
sS'7000000392'
p6620
I35
sS'7000000391'
p6621
I6
sS'7000000390'
p6622
I13
sS'7000000397'
p6623
I109
sS'7000000396'
p6624
I100
sS'7000000395'
p6625
I64
sS'7000000394'
p6626
I69
sS'7000000429'
p6627
I70
sS'7000000428'
p6628
I2
sS'7000000399'
p6629
I4
sS'7000000398'
p6630
I9
sS'7000000644'
p6631
I23
sS'7000000647'
p6632
I61
sS'7000000646'
p6633
I83
sS'7000000641'
p6634
I103
sS'7000000640'
p6635
I77
sS'7000000643'
p6636
I4
sS'7000000649'
p6637
I136
sS'3300000462'
p6638
I3
sS'3300000463'
p6639
I15
sS'3300000460'
p6640
I3
sS'3300000461'
p6641
I2
sS'3300008338'
p6642
I3
sS'3300008332'
p6643
I3
sS'3300008333'
p6644
I57
sS'3300008330'
p6645
I46
sS'3300008331'
p6646
I41
sS'3300008336'
p6647
I15
sS'3300008337'
p6648
I63
sS'3300008334'
p6649
I57
sS'3300008335'
p6650
I41
sS'2048955004'
p6651
I11
sS'2048955001'
p6652
I7
sS'2048955000'
p6653
I8
sS'2048955002'
p6654
I11
sS'3300000288'
p6655
I45
sS'3300000289'
p6656
I89
sS'3300000282'
p6657
I111
sS'3300000283'
p6658
I36
sS'3300000280'
p6659
I41
sS'3300000281'
p6660
I51
sS'3300000286'
p6661
I62
sS'3300000287'
p6662
I66
sS'3300000284'
p6663
I37
sS'3300000285'
p6664
I43
sS'3300004905'
p6665
I42
sS'3300004904'
p6666
I18
sS'3300004907'
p6667
I54
sS'3300004906'
p6668
I45
sS'3300004900'
p6669
I51
sS'3300004903'
p6670
I42
sS'3300004902'
p6671
I84
sS'3300004909'
p6672
I35
sS'3300004908'
p6673
I62
sS'2004178001'
p6674
I8
sS'7000000540'
p6675
I21
sS'3300003489'
p6676
I76
sS'3300003488'
p6677
I12
sS'3300003481'
p6678
I34
sS'3300003483'
p6679
I2
sS'3300003482'
p6680
I37
sS'3300003485'
p6681
I76
sS'3300003484'
p6682
I39
sS'3300003487'
p6683
I69
sS'3300003486'
p6684
I61
sS'3300002023'
p6685
I2
sS'3300006059'
p6686
I1653
sS'3300006058'
p6687
I480
sS'3300002026'
p6688
I234
sS'3300002027'
p6689
I315
sS'3300006507'
p6690
I1
sS'3300006054'
p6691
I6
sS'3300006505'
p6692
I5
sS'3300006056'
p6693
I1375
sS'3300006051'
p6694
I1294
sS'3300006050'
p6695
I835
sS'3300006501'
p6696
I3
sS'3300006052'
p6697
I1096
sS'3300005551'
p6698
I113
sS'3300005882'
p6699
I529
sS'3300005881'
p6700
I32
sS'3300005552'
p6701
I746
sS'3300005555'
p6702
I799
sS'3300005554'
p6703
I701
sS'3300005557'
p6704
I835
sS'3300005556'
p6705
I726
sS'3300005559'
p6706
I959
sS'3300005558'
p6707
I939
sS'3300005889'
p6708
I46
sS'3300005888'
p6709
I73
sS'3300008860'
p6710
I1
sS'3300003733'
p6711
I7
sS'3300003732'
p6712
I1
sS'3300003730'
p6713
I10
sS'3300003736'
p6714
I1
sS'3300003735'
p6715
I3
sS'3300003734'
p6716
I11
sS'3300008433'
p6717
I11
sS'3300007452'
p6718
I5
sS'3300007453'
p6719
I8
sS'3300008717'
p6720
I85
sS'3300007450'
p6721
I4
sS'3300008434'
p6722
I4
sS'3300007451'
p6723
I5
sS'3300007456'
p6724
I1
sS'3300008436'
p6725
I53
sS'3300007457'
p6726
I3
sS'3300007454'
p6727
I2
sS'3300007455'
p6728
I3
sS'3300007109'
p6729
I60
sS'3300008101'
p6730
I104
sS'3300008100'
p6731
I79
sS'3300008103'
p6732
I148
sS'3300008102'
p6733
I131
sS'3300008105'
p6734
I88
sS'3300008104'
p6735
I65
sS'3300008107'
p6736
I98
sS'3300008106'
p6737
I95
sS'3300008109'
p6738
I33
sS'3300008108'
p6739
I433
sS'2075704000'
p6740
I169
sS'2088090017'
p6741
I8
sS'2088090014'
p6742
I131
sS'2088090015'
p6743
I147
sS'2088090013'
p6744
I45
sS'3300005083'
p6745
I213
sS'3300005082'
p6746
I321
sS'3300005081'
p6747
I209
sS'3300005080'
p6748
I360
sS'3300005086'
p6749
I308
sS'3300004831'
p6750
I7
sS'3300007852'
p6751
I24
sS'7000000090'
p6752
I40
sS'3300000826'
p6753
I63
sS'3300001250'
p6754
I1
sS'7000000093'
p6755
I62
sS'3300001256'
p6756
I286
sS'3300001257'
p6757
I1
sS'3300001706'
p6758
I84
sS'3300001707'
p6759
I30
sS'7000000098'
p6760
I42
sS'3300001709'
p6761
I15
sS'3300001258'
p6762
I10
sS'3300001259'
p6763
I6
sS'3300000825'
p6764
I6
sS'3300004196'
p6765
I372
sS'3300004445'
p6766
I95
sS'3300000821'
p6767
I1
sS'3300004194'
p6768
I35
sS'3300004447'
p6769
I118
sS'3300004440'
p6770
I125
sS'3300004193'
p6771
I30
sS'3300004442'
p6772
I114
sS'3300005925'
p6773
I4
sS'3300004443'
p6774
I99
sS'7000000167'
p6775
I62
sS'3300008917'
p6776
I4
sS'3300008891'
p6777
I7
sS'7000000163'
p6778
I63
sS'3300004022'
p6779
I189
sS'3300004023'
p6780
I344
sS'3300004020'
p6781
I200
sS'3300004021'
p6782
I367
sS'3300004026'
p6783
I402
sS'3300004755'
p6784
I2
sS'3300000077'
p6785
I71
sS'3300004025'
p6786
I159
sS'3300000079'
p6787
I109
sS'3300004759'
p6788
I12
sS'3300004028'
p6789
I421
sS'3300004029'
p6790
I502
sS'3300007221'
p6791
I5
sS'3300007220'
p6792
I64
sS'3300007223'
p6793
I5
sS'3300007222'
p6794
I80
sS'3300007225'
p6795
I11
sS'3300007224'
p6796
I18
sS'3300007227'
p6797
I1
sS'3300007226'
p6798
I2
sS'3300007229'
p6799
I98
sS'3300007228'
p6800
I11
sS'3300007598'
p6801
I7
sS'3300000947'
p6802
I179
sS'3300007044'
p6803
I59
sS'3300007047'
p6804
I18
sS'3300007046'
p6805
I21
sS'3300007041'
p6806
I25
sS'3300007040'
p6807
I8
sS'3300007043'
p6808
I36
sS'3300007042'
p6809
I24
sS'3300007049'
p6810
I12
sS'3300007048'
p6811
I49
sS'3300000546'
p6812
I41
sS'3300000549'
p6813
I19
sS'3300001012'
p6814
I84
sS'3300001013'
p6815
I4
sS'3300002349'
p6816
I6
sS'3300002348'
p6817
I12
sS'3300006318'
p6818
I170
sS'3300006319'
p6819
I83
sS'3300002341'
p6820
I8
sS'3300006313'
p6821
I599
sS'3300002343'
p6822
I14
sS'3300002342'
p6823
I12
sS'3300002345'
p6824
I14
sS'3300002344'
p6825
I34
sS'3300006314'
p6826
I1
sS'3300002346'
p6827
I21
sS'3300007843'
p6828
I8
sS'3300005960'
p6829
I272
sS'3300005961'
p6830
I393
sS'3300005962'
p6831
I18
sS'3300005963'
p6832
I26
sS'3300005964'
p6833
I12
sS'3300005965'
p6834
I19
sS'3300005966'
p6835
I27
sS'3300005967'
p6836
I5
sS'3300005968'
p6837
I4
sS'3300005969'
p6838
I308
sS'2140918023'
p6839
I102
sS'2140918025'
p6840
I310
sS'2140918024'
p6841
I78
sS'2140918027'
p6842
I8
sS'3300008828'
p6843
I4
sS'3300008829'
p6844
I8
sS'3300008826'
p6845
I3
sS'3300008825'
p6846
I1
sS'2013338002'
p6847
I44
sS'2013338001'
p6848
I42
sS'3300005349'
p6849
I3
sS'3300005344'
p6850
I1330
sS'3300005345'
p6851
I936
sS'3300005346'
p6852
I215
sS'3300005347'
p6853
I1704
sS'3300005340'
p6854
I1229
sS'3300005341'
p6855
I770
sS'3300005342'
p6856
I1
sS'3300005343'
p6857
I891
sS'3300000440'
p6858
I1450
sS'3300000443'
p6859
I74
sS'3300000444'
p6860
I11
sS'3300000447'
p6861
I18
sS'3300008318'
p6862
I6
sS'3300008314'
p6863
I4
sS'3300008315'
p6864
I1
sS'3300008316'
p6865
I6
sS'3300008310'
p6866
I2
sS'3300008311'
p6867
I3
sS'3300008312'
p6868
I1
sS'7000000409'
p6869
I15
sS'7000000408'
p6870
I55
sS'7000000403'
p6871
I53
sS'7000000402'
p6872
I48
sS'7000000401'
p6873
I85
sS'7000000400'
p6874
I65
sS'7000000407'
p6875
I39
sS'7000000406'
p6876
I76
sS'7000000405'
p6877
I61
sS'7000000404'
p6878
I65
sS'7000000575'
p6879
I226
sS'3300001068'
p6880
I22
sS'7000000669'
p6881
I24
sS'7000000667'
p6882
I45
sS'3300001060'
p6883
I18
sS'3300001063'
p6884
I13
sS'7000000664'
p6885
I38
sS'7000000663'
p6886
I69
sS'7000000662'
p6887
I4
sS'7000000661'
p6888
I40
sS'7000000660'
p6889
I7
sS'3300004259'
p6890
I72
sS'3300004258'
p6891
I79
sS'3300000910'
p6892
I10
sS'3300000911'
p6893
I18
sS'3300000916'
p6894
I13
sS'3300000917'
p6895
I98
sS'3300000914'
p6896
I11
sS'3300000915'
p6897
I17
sS'3300004927'
p6898
I68
sS'3300004250'
p6899
I27
sS'3300004925'
p6900
I41
sS'3300004924'
p6901
I60
sS'3300004255'
p6902
I58
sS'3300004922'
p6903
I55
sS'3300004257'
p6904
I22
sS'3300004920'
p6905
I53
sS'3300007692'
p6906
I187
sS'3300003937'
p6907
I103
sS'3300003936'
p6908
I16
sS'3300003938'
p6909
I125
sS'3300000291'
p6910
I40
sS'2263196002'
p6911
I8
sS'3300006077'
p6912
I404
sS'3300006076'
p6913
I273
sS'3300006072'
p6914
I64
sS'3300006071'
p6915
I59
sS'3300006070'
p6916
I234
sS'3300006079'
p6917
I77
sS'3300006078'
p6918
I72
sS'3300000294'
p6919
I88
sS'3300003755'
p6920
I73
sS'3300003754'
p6921
I14
sS'3300003757'
p6922
I60
sS'3300003756'
p6923
I32
sS'3300003751'
p6924
I26
sS'3300003750'
p6925
I60
sS'3300003753'
p6926
I12
sS'3300003752'
p6927
I48
sS'3300003759'
p6928
I40
sS'3300003758'
p6929
I86
sS'3300002756'
p6930
I162
sS'3300002970'
p6931
I1
sS'3300004956'
p6932
I2
sS'3300005579'
p6933
I10
sS'3300005578'
p6934
I1419
sS'3300005573'
p6935
I1001
sS'3300005572'
p6936
I11
sS'3300005571'
p6937
I1
sS'3300002751'
p6938
I9
sS'3300005577'
p6939
I1576
sS'3300005576'
p6940
I741
sS'3300005575'
p6941
I708
sS'3300005574'
p6942
I413
sS'3300008129'
p6943
I82
sS'3300008128'
p6944
I74
sS'3300008123'
p6945
I108
sS'3300008122'
p6946
I33
sS'3300008121'
p6947
I36
sS'3300008120'
p6948
I59
sS'3300008127'
p6949
I50
sS'3300008126'
p6950
I129
sS'3300008125'
p6951
I90
sS'3300002408'
p6952
I657
sS'3300002402'
p6953
I14
sS'2088090031'
p6954
I22
sS'3300002400'
p6955
I12
sS'3300002401'
p6956
I22
sS'3300002406'
p6957
I83
sS'3300002407'
p6958
I282
sS'3300002404'
p6959
I12
sS'3300002405'
p6960
I16
sS'3300007531'
p6961
I105
sS'3300007530'
p6962
I68
sS'3300007245'
p6963
I1
sS'3300007244'
p6964
I55
sS'3300005759'
p6965
I50
sS'3300005758'
p6966
I214
sS'3300005757'
p6967
I33
sS'3300005756'
p6968
I11
sS'3300005753'
p6969
I441
sS'3300005752'
p6970
I31
sS'3300005751'
p6971
I11
sS'3300005750'
p6972
I5
sS'3300005992'
p6973
I103
sS'3300007241'
p6974
I35
sS'3300007240'
p6975
I77
sS'3300004220'
p6976
I19
sS'3300004221'
p6977
I18
sS'3300004222'
p6978
I20
sS'2225789003'
p6979
I53
sS'3300001275'
p6980
I22
sS'2225789001'
p6981
I13
sS'3300004223'
p6982
I10
sS'3300001270'
p6983
I239
sS'3300001271'
p6984
I107
sS'3300001272'
p6985
I4
sS'3300001273'
p6986
I7
sS'3300004224'
p6987
I40
sS'3300001278'
p6988
I515
sS'3300001279'
p6989
I145
sS'3300004993'
p6990
I89
sS'3300004226'
p6991
I37
sS'3300006895'
p6992
I61
sS'3300000942'
p6993
I26
sS'3300007759'
p6994
I56
sS'3300007758'
p6995
I136
sS'3300006896'
p6996
I81
sS'3300001188'
p6997
I4
sS'3300001189'
p6998
I5
sS'3300001182'
p6999
I8
sS'3300001183'
p7000
I15
sS'3300001180'
p7001
I12
sS'3300001181'
p7002
I2
sS'3300005912'
p7003
I138
sS'3300007753'
p7004
I42
sS'3300001986'
p7005
I5
sS'3300001987'
p7006
I24
sS'3300001988'
p7007
I4
sS'3300001989'
p7008
I253
sS'3300000059'
p7009
I520
sS'3300009126'
p7010
I407
sS'3300000053'
p7011
I85
sS'3300000052'
p7012
I139
sS'3300000051'
p7013
I40
sS'3300000050'
p7014
I4
sS'3300000056'
p7015
I71
sS'3300000055'
p7016
I2
sS'3300000054'
p7017
I14
sS'3300004004'
p7018
I549
sS'3300000584'
p7019
I4
sS'3300004006'
p7020
I338
sS'3300004007'
p7021
I343
sS'3300004000'
p7022
I226
sS'3300000580'
p7023
I110
sS'3300000583'
p7024
I2
sS'3300004003'
p7025
I313
sS'3300004008'
p7026
I381
sS'3300004009'
p7027
I272
sS'3300005917'
p7028
I402
sS'3300007504'
p7029
I64
sS'3300009129'
p7030
I334
sS'3300002987'
p7031
I101
sS'3300002986'
p7032
I267
sS'3300002984'
p7033
I9
sS'3300002983'
p7034
I10
sS'3300002989'
p7035
I309
sS'3300007209'
p7036
I15
sS'3300007208'
p7037
I47
sS'3300007203'
p7038
I21
sS'3300007202'
p7039
I213
sS'3300007201'
p7040
I5
sS'3300007200'
p7041
I230
sS'3300003232'
p7042
I1
sS'3300007206'
p7043
I144
sS'3300007205'
p7044
I3
sS'3300007204'
p7045
I59
sS'2037747002'
p7046
I25
sS'2037747003'
p7047
I19
sS'2037747000'
p7048
I28
sS'2037747001'
p7049
I23
sS'7000000574'
p7050
I145
sS'3300002186'
p7051
I105
sS'3300002185'
p7052
I194
sS'3300002184'
p7053
I402
sS'3300002183'
p7054
I274
sS'3300002182'
p7055
I943
sS'3300002180'
p7056
I607
sS'3300003580'
p7057
I92
sS'3300003581'
p7058
I33
sS'3300003582'
p7059
I114
sS'3300003583'
p7060
I133
sS'3300003584'
p7061
I99
sS'3300003585'
p7062
I78
sS'3300003586'
p7063
I159
sS'3300007068'
p7064
I23
sS'3300007067'
p7065
I26
sS'3300007066'
p7066
I30
sS'3300007065'
p7067
I26
sS'3300007064'
p7068
I12
sS'3300007063'
p7069
I29
sS'3300007062'
p7070
I14
sS'3300007061'
p7071
I78
sS'3300007060'
p7072
I29
sS'3300002363'
p7073
I3
sS'3300002362'
p7074
I2
sS'3300002361'
p7075
I10
sS'3300002360'
p7076
I15
sS'3300002367'
p7077
I5
sS'3300002366'
p7078
I22
sS'3300002365'
p7079
I3
sS'3300002364'
p7080
I4
sS'3300006334'
p7081
I94
sS'3300006335'
p7082
I390
sS'3300006336'
p7083
I466
sS'3300006337'
p7084
I156
sS'3300006330'
p7085
I160
sS'3300006331'
p7086
I246
sS'3300006332'
p7087
I350
sS'3300006333'
p7088
I97
sS'3300004383'
p7089
I2
sS'3300004382'
p7090
I66
sS'2140918003'
p7091
I7
sS'2140918002'
p7092
I4
sS'2140918001'
p7093
I9
sS'2140918007'
p7094
I171
sS'2140918006'
p7095
I111
sS'2140918005'
p7096
I8
sS'2140918004'
p7097
I5
sS'3300007879'
p7098
I8
sS'2140918009'
p7099
I15
sS'2140918008'
p7100
I667
sS'3300006981'
p7101
I29
sS'3300008800'
p7102
I1
sS'3300008803'
p7103
I6
sS'3300008805'
p7104
I13
sS'3300008807'
p7105
I14
sS'3300007506'
p7106
I5
sS'3300005326'
p7107
I420
sS'3300005327'
p7108
I1384
sS'3300005324'
p7109
I13
sS'3300005325'
p7110
I210
sS'3300005322'
p7111
I1
sS'3300005323'
p7112
I120
sS'3300005320'
p7113
I4
sS'3300005321'
p7114
I1
sS'2228664017'
p7115
I29
sS'2228664013'
p7116
I8
sS'2228664012'
p7117
I12
sS'3300005328'
p7118
I941
sS'2228664010'
p7119
I51
sS'7000000469'
p7120
I51
sS'7000000468'
p7121
I7
sS'7000000465'
p7122
I43
sS'7000000464'
p7123
I34
sS'7000000466'
p7124
I116
sS'7000000461'
p7125
I27
sS'7000000460'
p7126
I86
sS'7000000463'
p7127
I9
sS'7000000462'
p7128
I112
sS'3300004499'
p7129
I6
sS'3300004498'
p7130
I5
sS'3300004497'
p7131
I8
sS'3300004496'
p7132
I2
sS'3300004495'
p7133
I7
sS'3300004494'
p7134
I4
sS'3300004493'
p7135
I6
sS'3300004492'
p7136
I1
sS'3300004491'
p7137
I4
sS'3300004490'
p7138
I6
sS'3300001043'
p7139
I16
sS'7000000680'
p7140
I3
sS'3300001041'
p7141
I50
sS'7000000682'
p7142
I9
sS'7000000685'
p7143
I3
sS'3300001046'
p7144
I24
sS'3300001517'
p7145
I1
sS'7000000686'
p7146
I35
sS'7000000689'
p7147
I5
sS'7000000688'
p7148
I3
sS'3300001049'
p7149
I11
sS'3300004273'
p7150
I130
sS'3300000935'
p7151
I8
sS'3300000936'
p7152
I12
sS'3300000937'
p7153
I11
sS'3300004277'
p7154
I246
sS'3300004276'
p7155
I201
sS'3300004275'
p7156
I17
sS'3300004274'
p7157
I139
sS'3300004279'
p7158
I398
sS'3300004278'
p7159
I200
sS'3300000938'
p7160
I11
sS'3300000939'
p7161
I18
sS'3300003913'
p7162
I40
sS'3300003912'
p7163
I24
sS'3300003911'
p7164
I150
sS'3300003910'
p7165
I213
sS'3300003914'
p7166
I2
sS'3300008541'
p7167
I97
sS'2044078018'
p7168
I22
sS'2044078019'
p7169
I237
sS'3300008016'
p7170
I1
sS'2044078014'
p7171
I2
sS'2044078015'
p7172
I13
sS'2044078016'
p7173
I19
sS'2044078017'
p7174
I19
sS'2044078011'
p7175
I10
sS'2044078013'
p7176
I7
sS'3300008542'
p7177
I1
sS'3300008545'
p7178
I3
sS'3300008547'
p7179
I68
sS'3300000082'
p7180
I111
sS'3300004700'
p7181
I7
sS'3300004707'
p7182
I8
sS'3300004706'
p7183
I3
sS'3300007501'
p7184
I74
sS'3300003779'
p7185
I10
sS'3300003778'
p7186
I55
sS'3300003777'
p7187
I1
sS'3300003776'
p7188
I8
sS'3300003775'
p7189
I118
sS'3300003774'
p7190
I1
sS'3300003773'
p7191
I55
sS'3300003772'
p7192
I14
sS'3300003771'
p7193
I144
sS'3300003770'
p7194
I60
sS'3300001800'
p7195
I54
sS'3300002794'
p7196
I2
sS'3300007588'
p7197
I1
sS'3300005519'
p7198
I417
sS'3300005518'
p7199
I1688
sS'3300005515'
p7200
I1065
sS'3300005514'
p7201
I235
sS'3300005517'
p7202
I373
sS'3300005516'
p7203
I80
sS'3300005511'
p7204
I1216
sS'3300005510'
p7205
I507
sS'3300005513'
p7206
I391
sS'3300005512'
p7207
I148
sS'7000000502'
p7208
I25
sS'3300008149'
p7209
I114
sS'3300008148'
p7210
I64
sS'3300008145'
p7211
I42
sS'3300008144'
p7212
I162
sS'3300008147'
p7213
I81
sS'3300008146'
p7214
I72
sS'3300008141'
p7215
I81
sS'3300008140'
p7216
I233
sS'3300008143'
p7217
I105
sS'3300008142'
p7218
I277
sS'7000000501'
p7219
I23
sS'3300007502'
p7220
I30
sS'7000000506'
p7221
I4
sS'3300002859'
p7222
I3
sS'3300002858'
p7223
I14
sS'7000000508'
p7224
I93
sS'7000000509'
p7225
I42
sS'3300006370'
p7226
I19
sS'3300001214'
p7227
I8
sS'3300001215'
p7228
I11
sS'3300001212'
p7229
I4
sS'3300001213'
p7230
I11955
sS'3300002855'
p7231
I563
sS'3300002857'
p7232
I358
sS'3300002856'
p7233
I5
sS'3300004662'
p7234
I1
sS'3300000880'
p7235
I66
sS'2065487010'
p7236
I69
sS'2065487013'
p7237
I49
sS'2065487014'
p7238
I15
sS'7000000148'
p7239
I60
sS'7000000149'
p7240
I10
sS'3300004569'
p7241
I6
sS'7000000142'
p7242
I51
sS'7000000143'
p7243
I4
sS'7000000140'
p7244
I75
sS'3300004568'
p7245
I5
sS'7000000146'
p7246
I22
sS'7000000147'
p7247
I61
sS'7000000144'
p7248
I67
sS'7000000145'
p7249
I92
sS'3300000888'
p7250
I5
sS'3300000889'
p7251
I2
sS'3300004068'
p7252
I1
sS'3300004069'
p7253
I214
sS'3300004066'
p7254
I298
sS'3300004067'
p7255
I216
sS'3300004064'
p7256
I329
sS'3300004065'
p7257
I525
sS'3300004062'
p7258
I159
sS'3300004063'
p7259
I492
sS'3300000033'
p7260
I627
sS'3300004562'
p7261
I10
sS'7000000186'
p7262
I62
sS'3300001477'
p7263
I1
sS'7000000185'
p7264
I77
sS'7000000182'
p7265
I50
sS'7000000183'
p7266
I19
sS'7000000181'
p7267
I75
sS'3300005735'
p7268
I11
sS'3300002164'
p7269
I409
sS'2199352030'
p7270
I77
sS'3300005734'
p7271
I11
sS'3300004688'
p7272
I5
sS'3300004689'
p7273
I5
sS'3300004682'
p7274
I3
sS'3300004680'
p7275
I13
sS'3300004681'
p7276
I11
sS'3300004686'
p7277
I52
sS'3300004687'
p7278
I55
sS'3300004684'
p7279
I38
sS'3300004685'
p7280
I57
sS'3300005898'
p7281
I140
sS'2236876011'
p7282
I2
sS'2236876010'
p7283
I54
sS'2236876017'
p7284
I7
sS'2236876016'
p7285
I4
sS'2236876018'
p7286
I28
sS'3300003213'
p7287
I3
sS'3300003214'
p7288
I60
sS'3300003215'
p7289
I169
sS'3300003216'
p7290
I126
sS'3300003217'
p7291
I103
sS'3300003218'
p7292
I227
sS'3300003219'
p7293
I299
sS'3300007267'
p7294
I84
sS'3300007266'
p7295
I47
sS'3300007261'
p7296
I32
sS'3300007263'
p7297
I58
sS'3300007262'
p7298
I8
sS'3300006132'
p7299
I52
sS'3300006133'
p7300
I33
sS'3300006130'
p7301
I83
sS'3300006131'
p7302
I50
sS'3300006136'
p7303
I55
sS'3300006137'
p7304
I93
sS'3300006134'
p7305
I82
sS'3300006135'
p7306
I6
sS'3300006684'
p7307
I2
sS'3300002168'
p7308
I436
sS'3300006686'
p7309
I10
sS'3300006139'
p7310
I36
sS'3300006680'
p7311
I4
sS'3300006681'
p7312
I7
sS'3300006682'
p7313
I5
sS'3300009107'
p7314
I95
sS'3300007080'
p7315
I23
sS'3300007083'
p7316
I36
sS'3300007082'
p7317
I33
sS'3300007085'
p7318
I76
sS'3300007087'
p7319
I6
sS'3300007086'
p7320
I16
sS'3300007089'
p7321
I79
sS'3300007088'
p7322
I11
sS'3300006356'
p7323
I8
sS'3300006357'
p7324
I63
sS'3300006354'
p7325
I1269
sS'3300002306'
p7326
I4
sS'3300006352'
p7327
I227
sS'3300006353'
p7328
I1026
sS'3300006350'
p7329
I45
sS'3300006351'
p7330
I92
sS'3300002308'
p7331
I125
sS'3300006358'
p7332
I1235
sS'3300006359'
p7333
I16
sS'3300009105'
p7334
I467
sS'3300007888'
p7335
I26
sS'2016842009'
p7336
I1
sS'2016842008'
p7337
I27
sS'2016842003'
p7338
I17
sS'3300007880'
p7339
I1
sS'2016842001'
p7340
I3
sS'3300007882'
p7341
I5
sS'2016842005'
p7342
I26
sS'2016842004'
p7343
I60
sS'3300005896'
p7344
I63
sS'3300007492'
p7345
I13
sS'3300005308'
p7346
I7
sS'3300005309'
p7347
I18
sS'3300005658'
p7348
I66
sS'3300005659'
p7349
I442
sS'3300005300'
p7350
I89
sS'3300005653'
p7351
I7
sS'3300005650'
p7352
I129
sS'3300005651'
p7353
I249
sS'3300005656'
p7354
I368
sS'3300005657'
p7355
I385
sS'3300005306'
p7356
I8
sS'3300005307'
p7357
I20
sS'7000000425'
p7358
I94
sS'3300004243'
p7359
I8
sS'3300008682'
p7360
I109
sS'3300008683'
p7361
I5
sS'3300008680'
p7362
I122
sS'3300008688'
p7363
I147
sS'3300008689'
p7364
I2
sS'3300008431'
p7365
I2
sS'3300008359'
p7366
I17
sS'3300008428'
p7367
I4
sS'3300008429'
p7368
I2
sS'3300008350'
p7369
I18
sS'3300008420'
p7370
I69
sS'3300008421'
p7371
I45
sS'3300008430'
p7372
I5
sS'3300008356'
p7373
I1
sS'3300008357'
p7374
I2
sS'7000000331'
p7375
I74
sS'7000000330'
p7376
I10
sS'7000000333'
p7377
I99
sS'7000000332'
p7378
I83
sS'7000000335'
p7379
I27
sS'7000000334'
p7380
I108
sS'7000000337'
p7381
I4
sS'7000000336'
p7382
I35
sS'7000000449'
p7383
I91
sS'7000000448'
p7384
I3
sS'3300004471'
p7385
I35
sS'3300004470'
p7386
I39
sS'3300004473'
p7387
I29
sS'3300004472'
p7388
I33
sS'3300004475'
p7389
I48
sS'3300004474'
p7390
I31
sS'3300004477'
p7391
I53
sS'3300004476'
p7392
I61
sS'3300004479'
p7393
I1782
sS'3300004478'
p7394
I54
sS'3300001538'
p7395
I306
sS'3300001532'
p7396
I75
sS'3300001531'
p7397
I2
sS'3300001530'
p7398
I2
sS'3300001537'
p7399
I179
sS'3300001536'
p7400
I257
sS'3300001535'
p7401
I229
sS'3300001534'
p7402
I127
sS'3300004215'
p7403
I3
sS'3300004214'
p7404
I315
sS'3300004217'
p7405
I18
sS'3300004216'
p7406
I31
sS'3300004211'
p7407
I34
sS'3300004210'
p7408
I639
sS'3300004213'
p7409
I424
sS'3300004212'
p7410
I298
sS'3300006055'
p7411
I276
sS'3300004591'
p7412
I25
sS'3300004218'
p7413
I26
sS'3300003979'
p7414
I58
sS'3300003978'
p7415
I53
sS'3300003977'
p7416
I3
sS'3300003976'
p7417
I8
sS'3300003971'
p7418
I47
sS'3300003970'
p7419
I84
sS'3300003973'
p7420
I38
sS'3300003972'
p7421
I157
sS'3300007604'
p7422
I7
sS'3300007508'
p7423
I126
sS'3300004791'
p7424
I23
sS'3300000956'
p7425
I2916
sS'3300000954'
p7426
I180
sS'3300000955'
p7427
I739
sS'3300000953'
p7428
I167
sS'3300000950'
p7429
I21
sS'3300007748'
p7430
I68
sS'3300007749'
p7431
I70
sS'3300007742'
p7432
I69
sS'3300007743'
p7433
I17
sS'3300007740'
p7434
I43
sS'3300007741'
p7435
I22
sS'3300007746'
p7436
I116
sS'3300007747'
p7437
I69
sS'3300007744'
p7438
I2
sS'3300007745'
p7439
I2
sS'3300004596'
p7440
I14
sS'3300003791'
p7441
I129
sS'3300003790'
p7442
I82
sS'3300003793'
p7443
I4
sS'3300003792'
p7444
I127
sS'3300003795'
p7445
I11
sS'3300003794'
p7446
I142
sS'3300003797'
p7447
I11
sS'3300003796'
p7448
I11
sS'3300003798'
p7449
I4
sS'2222084008'
p7450
I12
sS'2222084009'
p7451
I4
sS'3300007117'
p7452
I14
sS'3300007116'
p7453
I94
sS'3300008876'
p7454
I4
sS'3300007114'
p7455
I162
sS'3300007113'
p7456
I87
sS'3300007112'
p7457
I14
sS'3300007111'
p7458
I41
sS'3300007110'
p7459
I12
sS'3300008709'
p7460
I19
sS'3300008708'
p7461
I8
sS'3300004314'
p7462
I11
sS'3300004643'
p7463
I1464
sS'3300005821'
p7464
I296
sS'3300005820'
p7465
I175
sS'3300005823'
p7466
I398
sS'3300005534'
p7467
I809
sS'3300005825'
p7468
I351
sS'3300005532'
p7469
I604
sS'3300005827'
p7470
I403
sS'3300005826'
p7471
I231
sS'3300005829'
p7472
I430
sS'3300005828'
p7473
I321
sS'3300004641'
p7474
I33
sS'3300005539'
p7475
I1558
sS'3300005538'
p7476
I932
sS'3300008167'
p7477
I9
sS'3300006796'
p7478
I1129
sS'3300008165'
p7479
I15
sS'3300008164'
p7480
I1
sS'3300008163'
p7481
I6
sS'3300008162'
p7482
I12
sS'3300008161'
p7483
I169
sS'3300006797'
p7484
I1252
sS'3300006794'
p7485
I638
sS'3300008169'
p7486
I9
sS'3300008168'
p7487
I6
sS'3300002446'
p7488
I282
sS'3300002447'
p7489
I164
sS'3300006247'
p7490
I155
sS'2199352001'
p7491
I12
sS'2199352000'
p7492
I31
sS'2199352003'
p7493
I6
sS'2199352002'
p7494
I9
sS'2199352005'
p7495
I18
sS'2199352004'
p7496
I16
sS'3300002448'
p7497
I239
sS'3300006793'
p7498
I41
sS'3300005799'
p7499
I88
sS'3300005798'
p7500
I35
sS'3300006242'
p7501
I12
sS'3300005793'
p7502
I81
sS'3300005792'
p7503
I9
sS'3300005791'
p7504
I13
sS'3300006791'
p7505
I487
sS'3300005796'
p7506
I30
sS'3300005795'
p7507
I44
sS'3300005794'
p7508
I14
sS'3300007844'
p7509
I2
sS'3300007662'
p7510
I44
sS'3300007841'
p7511
I9
sS'3300001230'
p7512
I10
sS'3300001232'
p7513
I14
sS'3300001235'
p7514
I22
sS'3300001236'
p7515
I3
sS'3300001237'
p7516
I19
sS'3300001239'
p7517
I161
sS'3300004864'
p7518
I42
sS'3300000831'
p7519
I28
sS'3300000833'
p7520
I50
sS'7000000172'
p7521
I123
sS'7000000171'
p7522
I119
sS'3300004594'
p7523
I15
sS'7000000177'
p7524
I2
sS'3300001486'
p7525
I4
sS'3300006884'
p7526
I58
sS'3300000944'
p7527
I91
sS'7000000175'
p7528
I115
sS'7000000174'
p7529
I28
sS'3300001942'
p7530
I52
sS'3300001943'
p7531
I44
sS'3300001940'
p7532
I25
sS'3300001941'
p7533
I53
sS'3300001946'
p7534
I21
sS'3300001947'
p7535
I53
sS'3300001944'
p7536
I16
sS'3300001945'
p7537
I50
sS'7000000164'
p7538
I6
sS'7000000165'
p7539
I1
sS'3300001948'
p7540
I78
sS'3300001949'
p7541
I55
sS'7000000160'
p7542
I2
sS'7000000161'
p7543
I11
sS'7000000162'
p7544
I54
sS'3300001493'
p7545
I12
sS'7000000511'
p7546
I90
sS'3300000946'
p7547
I3
sS'3300000541'
p7548
I4
sS'3300000543'
p7549
I568
sS'3300000545'
p7550
I4
sS'3300000547'
p7551
I48
sS'3300004047'
p7552
I81
sS'3300004048'
p7553
I167
sS'3300004049'
p7554
I187
sS'3300000940'
p7555
I30
sS'3300004595'
p7556
I3
sS'3300000574'
p7557
I251
sS'3300000575'
p7558
I112
sS'3300000576'
p7559
I90
sS'3300000577'
p7560
I450
sS'3300000571'
p7561
I293
sS'3300003896'
p7562
I15
sS'3300003897'
p7563
I33
sS'3300003894'
p7564
I189
sS'3300003895'
p7565
I13
sS'3300003892'
p7566
I235
sS'3300007242'
p7567
I19
sS'3300003890'
p7568
I115
sS'3300003891'
p7569
I288
sS'3300007539'
p7570
I26
sS'3300007538'
p7571
I6
sS'3300003898'
p7572
I39
sS'3300003899'
p7573
I6
sS'3300006114'
p7574
I76
sS'3300006115'
p7575
I62
sS'3300006116'
p7576
I52
sS'3300006117'
p7577
I61
sS'3300006110'
p7578
I67
sS'3300006111'
p7579
I61
sS'3300006112'
p7580
I39
sS'3300006113'
p7581
I70
sS'3300006118'
p7582
I86
sS'3300006119'
p7583
I54
sS'3300003690'
p7584
I16
sS'3300003163'
p7585
I10
sS'3300003098'
p7586
I11
sS'3300003096'
p7587
I4
sS'3300003097'
p7588
I5
sS'3300003094'
p7589
I3
sS'3300003095'
p7590
I1
sS'3300003092'
p7591
I3
sS'3300003093'
p7592
I4
sS'3300003090'
p7593
I3
sS'3300003091'
p7594
I1
sS'3300003262'
p7595
I4
sS'2022920005'
p7596
I7
sS'2022920004'
p7597
I9
sS'2022920007'
p7598
I6
sS'2022920006'
p7599
I10
sS'2022920000'
p7600
I16
sS'2022920003'
p7601
I34
sS'2022920002'
p7602
I4
sS'3300007603'
p7603
I380
sS'2022920009'
p7604
I5
sS'2022920008'
p7605
I8
sS'3300002149'
p7606
I137
sS'3300002143'
p7607
I54
sS'3300002142'
p7608
I49
sS'3300002141'
p7609
I33
sS'3300002140'
p7610
I17
sS'3300002147'
p7611
I64
sS'3300002146'
p7612
I39
sS'3300002145'
p7613
I127
sS'3300002144'
p7614
I35
sS'3300005498'
p7615
I9
sS'3300005499'
p7616
I12
sS'2038011004'
p7617
I17
sS'2038011003'
p7618
I2
sS'2038011002'
p7619
I147
sS'2038011001'
p7620
I52
sS'2038011000'
p7621
I48
sS'3300005490'
p7622
I9
sS'3300005491'
p7623
I47
sS'3300005492'
p7624
I15
sS'3300005493'
p7625
I20
sS'3300005494'
p7626
I7
sS'3300005495'
p7627
I13
sS'3300005496'
p7628
I27
sS'3300005497'
p7629
I9
sS'3300003638'
p7630
I3
sS'3300003639'
p7631
I10
sS'3300003631'
p7632
I1
sS'3300003637'
p7633
I11
sS'3300006378'
p7634
I6
sS'3300006379'
p7635
I5
sS'3300002851'
p7636
I41
sS'3300002850'
p7637
I28
sS'3300006372'
p7638
I2
sS'3300006374'
p7639
I4
sS'3300002854'
p7640
I321
sS'3300006376'
p7641
I102
sS'3300006377'
p7642
I9
sS'3300005674'
p7643
I2
sS'3300005675'
p7644
I1
sS'3300005677'
p7645
I1
sS'3300005672'
p7646
I2
sS'3300005673'
p7647
I7
sS'3300008554'
p7648
I2
sS'3300006808'
p7649
I91
sS'3300006809'
p7650
I206
sS'3300006802'
p7651
I21
sS'3300006803'
p7652
I370
sS'3300006800'
p7653
I1193
sS'3300006801'
p7654
I1105
sS'3300006806'
p7655
I1429
sS'3300006807'
p7656
I29
sS'3300006804'
p7657
I1272
sS'3300006805'
p7658
I652
sS'3300008408'
p7659
I69
sS'3300008409'
p7660
I23
sS'3300008404'
p7661
I47
sS'3300008405'
p7662
I84
sS'3300008406'
p7663
I83
sS'3300008407'
p7664
I3
sS'3300008401'
p7665
I33
sS'3300008403'
p7666
I54
sS'7000000319'
p7667
I3
sS'7000000318'
p7668
I48
sS'7000000313'
p7669
I98
sS'7000000312'
p7670
I31
sS'7000000311'
p7671
I4
sS'7000000310'
p7672
I4
sS'7000000317'
p7673
I128
sS'7000000316'
p7674
I138
sS'7000000315'
p7675
I136
sS'7000000314'
p7676
I7
sS'3300004185'
p7677
I151
sS'3300004184'
p7678
I88
sS'3300004187'
p7679
I7
sS'3300004186'
p7680
I252
sS'3300004181'
p7681
I91
sS'3300004180'
p7682
I81
sS'3300004183'
p7683
I106
sS'3300004182'
p7684
I84
sS'3300004189'
p7685
I17
sS'3300004188'
p7686
I37
sS'3300001006'
p7687
I2
sS'3300007231'
p7688
I106
sS'3300009042'
p7689
I6
sS'3300003957'
p7690
I4
sS'3300003956'
p7691
I21
sS'3300003955'
p7692
I14
sS'3300003954'
p7693
I3
sS'3300003959'
p7694
I23
sS'3300003958'
p7695
I28
sS'3300004459'
p7696
I85
sS'3300004453'
p7697
I105
sS'3300004452'
p7698
I109
sS'3300004451'
p7699
I152
sS'3300004450'
p7700
I104
sS'3300004457'
p7701
I3
sS'3300004456'
p7702
I148
sS'3300004455'
p7703
I178
sS'3300004454'
p7704
I16
s.